(lp0
(dp1
S'limited'
p2
I1807
sS'selor'
p3
I3105
sS'hats'
p4
I1808
sS'dynamic'
p5
I1810
sS'swirls'
p6
I1811
sS'yellow'
p7
I721
sS'four'
p8
I417
sS'protest'
p9
I1162
sS'sleep'
p10
I458
sS'hanging'
p11
I1163
sS'woody'
p12
I1812
sS'saved'
p13
I881
sS'quizzical'
p14
I3050
sS'increase'
p15
I1814
sS'patches'
p16
I1816
sS'fingernails'
p17
I1165
sS'bike'
p18
I1166
sS'thinness'
p19
I1818
sS'daze'
p20
I1819
sS'under'
p21
I376
sS'sorry'
p22
I418
sS'plaintive'
p23
I1820
sS'worth'
p24
I1821
sS'playground'
p25
I3673
sS'softener'
p26
I1822
sS'lack'
p27
I2902
sS'intermingling'
p28
I1823
sS'risk'
p29
I1824
sS'pages'
p30
I2615
sS'cornfields'
p31
I1826
sS'pierce'
p32
I3298
sS'covert'
p33
I2302
sS'every'
p34
I196
sS'wich'
p35
I3675
sS'frailty'
p36
I1828
sS'stabbed'
p37
I1829
sS'fireplace'
p38
I1830
sS'encounter'
p39
I1204
sS'founded'
p40
I2903
sS'school'
p41
I601
sS'uttering'
p42
I1833
sS'grains'
p43
I3301
sS'motorcyclist'
p44
I882
sS'fondly'
p45
I1835
sS'glues'
p46
I1837
sS'flashy'
p47
I1839
sS'intens'
p48
I1840
sS'heading'
p49
I1841
sS'clothes'
p50
I1168
sS'enjoy'
p51
I1169
sS'chew'
p52
I1842
sS'parted'
p53
I1843
sS'glassy'
p54
I1844
sS'force'
p55
I1170
sS'faintest'
p56
I1171
sS'tired'
p57
I1845
sS'awake'
p58
I1806
sS'miller'
p59
I298
sS'reacted'
p60
I4029
sS'bubbling'
p61
I1846
sS'bacon'
p62
I1847
sS'frosted'
p63
I1848
sS'horn'
p64
I1172
sS'surrounding'
p65
I1849
sS'second'
p66
I419
sS'louder'
p67
I907
sS'kidnap'
p68
I1850
sS'me;'
p69
I1851
sS'theory'
p70
I773
sS'even'
p71
I125
sS'hide'
p72
I884
sS'deliberate'
p73
I1852
sS'solemn'
p74
I1853
sS'hate'
p75
I1854
sS'cooking'
p76
I915
sS'serrated'
p77
I1856
sS'weren'
p78
I930
sS'poison'
p79
I1857
sS'scrolling'
p80
I3797
sS'lights'
p81
I602
sS'haze'
p82
I1858
sS'melted'
p83
I2164
sS'above'
p84
I522
sS'blur'
p85
I1247
sS'new'
p86
I197
sS'net'
p87
I1860
sS'increasing'
p88
I1176
sS'ever'
p89
I235
sS'told'
p90
I185
sS'hero'
p91
I1861
sS'avert'
p92
I1862
sS'quietened'
p93
I1863
sS'pancakes'
p94
I1177
sS'inhaled'
p95
I2544
sS'never'
p96
I126
sS'stared'
p97
I280
sS'here'
p98
I87
sS'hundreds'
p99
I1865
sS'wackjob'
p100
I1866
sS'met'
p101
I1178
sS'fairly'
p102
I2191
sS'bookcase'
p103
I1868
sS'path'
p104
I1179
sS'100'
p105
I1180
sS'cardboard'
p106
I1869
sS'dry'
p107
I723
sS'kids'
p108
I617
sS'daughter'
p109
I1182
sS'oozes'
p110
I1871
sS'buckled'
p111
I1873
sS'leaves'
p112
I886
sS'climbed'
p113
I887
sS'inwardly'
p114
I1875
sS'deers'
p115
I1876
sS'published'
p116
I2967
sS'recognised'
p117
I3995
sS'smoke'
p118
I1183
sS'settled'
p119
I1287
sS'golden'
p120
I1878
sS'prints'
p121
I1184
sS'formulating'
p122
I3619
sS'slices'
p123
I1879
sS'explained'
p124
I1880
sS'cloistered'
p125
I1881
sS'angrily'
p126
I2218
sS'brought'
p127
I592
sS'visible'
p128
I1298
sS'specifics'
p129
I1883
sS'glance'
p130
I1885
sS'landscape'
p131
I1187
sS'meaty'
p132
I1886
sS'spoke'
p133
I725
sS'would'
p134
I42
sS'army'
p135
I1173
sS'hospital'
p136
I603
sS'indians'
p137
I1888
sS'arms'
p138
I236
sS'steering'
p139
I1120
sS'call'
p140
I386
sS'calm'
p141
I460
sS'strike'
p142
I1890
sS'tell'
p143
I307
sS'slaughtered'
p144
I1891
sS'separated'
p145
I1189
sS'incredibly'
p146
I3944
sS'whatsoever'
p147
I1893
sS'lungs'
p148
I624
sS'relax'
p149
I2314
sS'trousers'
p150
I1895
sS'jackals'
p151
I3252
sS'billowing'
p152
I1897
sS'aware'
p153
I625
sS'glass'
p154
I377
sS'warm'
p155
I378
sS'defeated'
p156
I2175
sS'breaths'
p157
I1190
sS'allies'
p158
I2440
sS'hole'
p159
I1332
sS'hold'
p160
I604
sS'sped'
p161
I726
sS'supplemental'
p162
I1902
sS'must'
p163
I208
sS'shoot'
p164
I762
sS'word'
p165
I954
sS'room'
p166
I355
sS'divorced'
p167
I1905
sS'brewed'
p168
I1906
sS'work'
p169
I420
sS'mi'
p170
I1191
sS'roof'
p171
I1907
sS'movies'
p172
I1908
sS'mr'
p173
I430
sS'my'
p174
I13
sS'could'
p175
I75
sS'scavenge'
p176
I1910
sS'shook'
p177
I379
sS'sinking'
p178
I1911
sS'vodka'
p179
I1912
sS'quiver'
p180
I1913
sS'give'
p181
I461
sS'indif'
p182
I1914
sS'wrenches'
p183
I1915
sS'honey'
p184
I1193
sS'liter'
p185
I1916
sS'caused'
p186
I2901
sS'want'
p187
I132
sS'wrenched'
p188
I890
sS'cavorted'
p189
I1917
sS'times'
p190
I299
sS'rid'
p191
I3312
sS'totaled'
p192
I727
sS'worse'
p193
I657
sS'orbs'
p194
I3363
sS'end'
p195
I174
sS'thing'
p196
I170
sS'complaining'
p197
I1920
sS'agony'
p198
I1921
sS'drying'
p199
I1769
sS'how'
p200
I122
sS'hot'
p201
I1377
sS'salivate'
p202
I1924
sS'hesitatingly'
p203
I3598
sS'answer'
p204
I728
sS'disappoint'
p205
I1925
sS'preferable'
p206
I1927
sS'massive'
p207
I1399
sS'oceans'
p208
I1867
sS'beauty'
p209
I1194
sS'mess'
p210
I892
sS'proach'
p211
I1929
sS'ladder'
p212
I88
sS'after'
p213
I148
sS'damaged'
p214
I2184
sS'less'
p215
I520
sS'bared'
p216
I1931
sS'wrong'
p217
I463
sS'lay'
p218
I729
sS'curiosity'
p219
I1932
sS'biting'
p220
I697
sS'bottles'
p221
I2185
sS'food;'
p222
I1934
sS'lap'
p223
I1935
sS'plies'
p224
I1936
sS'chilled'
p225
I2571
sS'attempt'
p226
I1195
sS'choking'
p227
I3319
sS'third'
p228
I1197
sS'weekender'
p229
I198
sS'wins'
p230
I1938
sS'spout'
p231
I1939
sS'appreciate'
p232
I1198
sS'psychologist'
p233
I2923
sS'think'
p234
I141
sS'sickening'
p235
I1941
sS'wink'
p236
I1942
sS'green'
p237
I436
sS'phrased'
p238
I1919
sS'keeps'
p239
I876
sS'aloud'
p240
I1201
sS'order'
p241
I1945
sS'wind'
p242
I281
sS'wine'
p243
I1202
sS'suspender'
p244
I1946
sS'breathe'
p245
I3810
sS'kick'
p246
I3933
sS'office'
p247
I524
sS'cheese'
p248
I3231
sS'polaroid'
p249
I1949
sS'over'
p250
I94
sS'greyness'
p251
I2640
sS'tricked'
p252
I1205
sS'underside'
p253
I1950
sS'oven'
p254
I1953
sS'windshield'
p255
I893
sS'digest'
p256
I1954
sS'before'
p257
I102
sS'glances'
p258
I1431
sS'beside'
p259
I1206
sS'toothy'
p260
I1956
sS'plainly'
p261
I3694
sS'fit'
p262
I1957
sS'somewhere'
p263
I730
sS'screaming'
p264
I1958
sS'backpack'
p265
I1959
sS','
p266
I4
sS'writing'
p267
I894
sS'better'
p268
I525
sS'tilts'
p269
I1960
sS'differently'
p270
I1207
sS'glanced'
p271
I606
sS'whips'
p272
I1961
sS'weeks'
p273
I1008
sS'easier'
p274
I1209
sS'bunching'
p275
I1962
sS'split'
p276
I1495
sS'then'
p277
I61
sS'them'
p278
I56
sS'tourist'
p279
I895
sS'combination'
p280
I1963
sS'unemployed'
p281
I1965
sS'safe'
p282
I1211
sS'wooded'
p283
I1967
sS'break'
p284
I607
sS'roommate'
p285
I1968
sS'therapy'
p286
I1969
sS'owned'
p287
I3695
sS'they'
p288
I45
sS'aromas'
p289
I3548
sS'glazed'
p290
I1972
sS'altogether'
p291
I1973
sS'yourself'
p292
I1974
sS'silver'
p293
I1975
sS'smoking'
p294
I3873
sS'shadows'
p295
I896
sS'stinking'
p296
I1976
sS'meat'
p297
I1977
sS'oxygen'
p298
I1978
sS'brightness'
p299
I1979
sS'regularly'
p300
I1980
sS'softens'
p301
I1981
sS'icy;'
p302
I1983
sS'l'
p303
I731
sS'alexis'
p304
I1984
sS'hoots'
p305
I4010
sS'filling'
p306
I1463
sS'leaned'
p307
I732
sS'hardback'
p308
I1987
sS'each'
p309
I168
sS'went'
p310
I300
sS'side'
p311
I133
sS'bone'
p312
I733
sS'luck'
p313
I526
sS'spiralling'
p314
I1589
sS'tatty'
p315
I1989
sS'mangled'
p316
I1212
sS'tip'
p317
I1583
sS'snaked'
p318
I1990
sS'literature'
p319
I1590
sS'forgot'
p320
I1991
sS'ghosts'
p321
I1213
sS'saturday'
p322
I1214
sS'lugged'
p323
I1992
sS'footfalls'
p324
I1892
sS'appalled'
p325
I3345
sS'driving'
p326
I1215
sS'god'
p327
I804
sS'motel'
p328
I1995
sS'passengers'
p329
I3291
sS'hooked'
p330
I1355
sS'forty'
p331
I1217
sS'alls;'
p332
I1996
sS'fellows'
p333
I1218
sS'content'
p334
I897
sS're'
p335
I898
sS'laid'
p336
I1997
sS'adjust'
p337
I2930
sS"'em"
p338
I2560
sS'got'
p339
I97
sS'washes'
p340
I1219
sS'twice'
p341
I2000
sS'subsiding'
p342
I1220
sS'calmest'
p343
I2001
sS'agonising'
p344
I2002
sS'grease'
p345
I2003
sS'turning'
p346
I899
sS'little'
p347
I143
sS'free'
p348
I527
sS'fred'
p349
I446
sS'slivers'
p350
I2248
sS'splashes'
p351
I1503
sS'hoodie'
p352
I2006
sS'skeletal'
p353
I2927
sS'returning'
p354
I2920
sS'wanted'
p355
I210
sS'greasy'
p356
I1506
sS'enormous'
p357
I2008
sS'ate'
p358
I3101
sS'shelves'
p359
I1222
sS'starts'
p360
I900
sS'lous'
p361
I2010
sS'days'
p362
I237
sS'local'
p363
I3787
sS'isn'
p364
I1156
sS'moving'
p365
I2012
sS'onto'
p366
I349
sS'bite'
p367
I1224
sS'speeds'
p368
I2013
sS'reemerge'
p369
I2933
sS'already'
p370
I422
sS'disfigured'
p371
I2015
sS'strips'
p372
I2908
sS'unlit'
p373
I2016
sS'comforted'
p374
I2017
sS'hearing'
p375
I1225
sS'hook'
p376
I734
sS'featured'
p377
I2018
sS'another'
p378
I330
sS'wasn'
p379
I238
sS'millers'
p380
I1226
sS'thick'
p381
I902
sS'hood'
p382
I2019
sS'<UNK>'
p383
I1
sS'magnificent'
p384
I2020
sS'ten'
p385
I1042
sS'activities'
p386
I2918
sS'top'
p387
I608
sS'crunches'
p388
I2022
sS'girls'
p389
I1227
sS'tow'
p390
I2023
sS'fiction'
p391
I2024
sS'needed'
p392
I609
sS'disappointed'
p393
I2774
sS'too'
p394
I83
sS'legs'
p395
I175
sS'bitter'
p396
I904
sS'warms'
p397
I2766
sS'rummaged'
p398
I2027
sS'listen'
p399
I2028
sS'curtains'
p400
I2029
sS'was;'
p401
I2030
sS'moisture'
p402
I1330
sS'ted'
p403
I2938
sS'frowned'
p404
I2034
sS'took'
p405
I211
sS'nearing'
p406
I2939
sS'motionless'
p407
I3334
sS'somewhat'
p408
I2035
sS'wasted'
p409
I1229
sS'peculiar'
p410
I2036
sS'sarcastically'
p411
I2037
sS'daren'
p412
I3335
sS'begins'
p413
I610
sS'mercy'
p414
I186
sS'anxiety'
p415
I2038
sS'cruelly'
p416
I2039
sS'showed'
p417
I906
sS'matted'
p418
I2040
sS'bloated'
p419
I1230
sS'tree'
p420
I95
sS'bitterness'
p421
I2041
sS'tourists'
p422
I2042
sS'matter'
p423
I735
sS'street'
p424
I459
sS'silly'
p425
I1231
sS'sheen'
p426
I2043
sS'wisps'
p427
I2044
sS'tion'
p428
I908
sS'feeling'
p429
I331
sS'powers'
p430
I1232
sS'unintended'
p431
I2045
sS'sees'
p432
I2046
sS'ran'
p433
I464
sS'navigate'
p434
I2047
sS'mind'
p435
I301
sS'mine'
p436
I465
sS'anybody'
p437
I1734
sS'talking'
p438
I466
sS'dozed'
p439
I2048
sS'arousal'
p440
I2049
sS'seen'
p441
I256
sS'seem'
p442
I380
sS'sounding'
p443
I1233
sS'possible'
p444
I3993
sS'dozen'
p445
I1234
sS'forced'
p446
I909
sS'quieter'
p447
I2051
sS'strength'
p448
I2052
sS'genuine'
p449
I1235
sS'laden'
p450
I3337
sS'clenched'
p451
I2054
sS'soaked'
p452
I2055
sS'-'
p453
I34
sS'snow'
p454
I1456
sS'chest'
p455
I467
sS'coldness'
p456
I1236
sS'laughed'
p457
I350
sS'shining'
p458
I910
sS'lamps'
p459
I2409
sS'circles'
p460
I2057
sS'blue'
p461
I302
sS'crumpled'
p462
I2058
sS'nobody'
p463
I2059
sS'pricks'
p464
I3341
sS'lion'
p465
I3720
sS'though'
p466
I212
sS'tormenting'
p467
I2061
sS'corpse'
p468
I3964
sS'audition'
p469
I2063
sS'regular'
p470
I2064
sS'mouth'
p471
I144
sS'addict'
p472
I2065
sS'plenty'
p473
I737
sS'circled'
p474
I2066
sS'coin'
p475
I3428
sS'jean'
p476
I2068
sS'grave'
p477
I2069
sS'glow'
p478
I1237
sS'peers'
p479
I2070
sS'don'
p480
I114
sS'nostrils'
p481
I2071
sS'ridicu'
p482
I3344
sS'calculated'
p483
I2072
sS'camp'
p484
I2073
sS'metal'
p485
I303
sS'dog'
p486
I2074
sS'newcomers'
p487
I2075
sS'swerved'
p488
I2148
sS'singed'
p489
I2076
sS'deeply'
p490
I1043
sS'breathed'
p491
I911
sS'er'
p492
I1805
sS'scream'
p493
I381
sS'came'
p494
I176
sS'saying'
p495
I912
sS'beaten'
p496
I1238
sS'bait'
p497
I257
sS'towering'
p498
I3068
sS'hunger'
p499
I913
sS'insects'
p500
I1239
sS'fingers'
p501
I914
sS'pops'
p502
I1240
sS'waking'
p503
I3529
sS'showing'
p504
I3372
sS'radio'
p505
I1241
sS'stepping'
p506
I1242
sS'yellowing'
p507
I2077
sS'earth'
p508
I351
sS'peddle'
p509
I2078
sS'chewed'
p510
I2079
sS'enjoyed'
p511
I1243
sS'toast'
p512
I1244
sS'busy'
p513
I916
sS'clicked'
p514
I2081
sS'painfully'
p515
I2082
sS'shuffling'
p516
I2084
sS'explain'
p517
I917
sS'folded'
p518
I918
sS'bust'
p519
I2085
sS'appreciated'
p520
I2086
sS'touched'
p521
I691
sS'wizened'
p522
I1245
sS'heartily'
p523
I2089
sS'mouthfuls'
p524
I3589
sS'rectangle'
p525
I2090
sS'wearing'
p526
I612
sS'do'
p527
I93
sS'faced'
p528
I3867
sS'beater'
p529
I1859
sS'stop'
p530
I352
sS'umbilical'
p531
I919
sS'pocket'
p532
I529
sS'pierced'
p533
I2091
sS'clumsiness'
p534
I2092
sS'cushion'
p535
I2093
sS'despite'
p536
I530
sS'report'
p537
I1248
sS'vividly'
p538
I2094
sS'considerate'
p539
I2095
sS'sabrina'
p540
I2096
sS'implored'
p541
I3958
sS'runs'
p542
I2097
sS'bar'
p543
I531
sS'spilling'
p544
I1249
sS'covering'
p545
I2098
sS'fields'
p546
I920
sS'rumbling'
p547
I3352
sS'patch'
p548
I1252
sS'bag'
p549
I382
sS'bad'
p550
I468
sS'softly'
p551
I2100
sS'rune'
p552
I2101
sS'gears'
p553
I2102
sS'rung'
p554
I738
sS'release'
p555
I1253
sS'bam'
p556
I921
sS'boarded'
p557
I2103
sS'ears'
p558
I1254
sS'fragrant'
p559
I2104
sS'blew'
p560
I2105
sS'dustbin'
p561
I2106
sS'irritable'
p562
I2453
sS'crescents'
p563
I2108
sS'splotches'
p564
I1255
sS'decided'
p565
I1256
sS'radius'
p566
I2109
sS'result'
p567
I2110
sS'clem'
p568
I79
sS'fail'
p569
I2111
sS'spattered'
p570
I2112
sS'rivulets'
p571
I2113
sS'best'
p572
I923
sS'dreamscape'
p573
I2114
sS'pete'
p574
I532
sS'said'
p575
I35
sS'draws'
p576
I1257
sS'pressured'
p577
I1258
sS'lots'
p578
I1259
sS'away'
p579
I110
sS'close;'
p580
I3843
sS'caved'
p581
I2115
sS'mud'
p582
I739
sS'unable'
p583
I1131
sS'finger'
p584
I924
sS'hopefully'
p585
I2117
sS'drawn'
p586
I2119
sS'glossy'
p587
I2583
sS'preserve'
p588
I2121
sS'claws'
p589
I925
sS'we'
p590
I85
sS'men'
p591
I1260
sS'triples'
p592
I2122
sS'rollercoaster'
p593
I3723
sS'nature'
p594
I2124
sS'rolled'
p595
I740
sS'smelled'
p596
I613
sS'herrera'
p597
I741
sS'fruits'
p598
I2584
sS'however'
p599
I423
sS'wi'
p600
I2125
sS'boss'
p601
I533
sS'cards'
p602
I2585
sS'drew'
p603
I2127
sS'news'
p604
I1261
sS'picking'
p605
I1262
sS'10%'
p606
I2128
sS'roller'
p607
I2129
sS'kitchen'
p608
I614
sS'pity'
p609
I1263
sS'cop'
p610
I742
sS'protect'
p611
I2130
sS'accident'
p612
I1264
sS'brown'
p613
I2131
sS'excrement'
p614
I2132
sS'fault'
p615
I2133
sS'cup'
p616
I837
sS'throb'
p617
I3538
sS'movement'
p618
I1500
sS'against'
p619
I239
sS'baskets'
p620
I3555
sS'merging'
p621
I2136
sS'planned'
p622
I1265
sS'faces'
p623
I1764
sS'com'
p624
I1266
sS'asked'
p625
I107
sS'presumably'
p626
I2139
sS'appeared'
p627
I2140
sS'drooped'
p628
I3364
sS'vain'
p629
I1267
sS'vast'
p630
I2141
sS'seizure'
p631
I2142
sS'height'
p632
I535
sS'karen'
p633
I155
sS'wider'
p634
I926
sS'loaded'
p635
I2143
sS'humming'
p636
I1815
sS'trust'
p637
I615
sS'stares'
p638
I2145
sS'speak'
p639
I743
sS'bathroom'
p640
I616
sS'yellowed'
p641
I2146
sS'beggar'
p642
I3730
sS'beef'
p643
I2147
sS'mythological'
p644
I2149
sS'dusting'
p645
I2150
sS'three'
p646
I213
sS'been'
p647
I52
sS'.'
p648
I2
sS'ting'
p649
I2151
sS'beer'
p650
I1269
sS'startled'
p651
I1039
sS'interest'
p652
I1270
sS'miraculously'
p653
I2152
sS'expected'
p654
I744
sS'canopy'
p655
I3850
sS'lovely'
p656
I2153
sS'warmth'
p657
I927
sS'threw'
p658
I469
sS'life'
p659
I214
sS'easy'
p660
I928
sS'drugs'
p661
I1271
sS'sag'
p662
I2154
sS'uncommon'
p663
I2155
sS'lice'
p664
I2592
sS'snap'
p665
I3368
sS'strewn'
p666
I2793
sS'jewels'
p667
I2593
sS'hollowed'
p668
I2158
sS'child'
p669
I745
sS'catch'
p670
I383
sS'worked'
p671
I618
sS'contortion'
p672
I2442
sS'chill'
p673
I929
sS'exception'
p674
I2160
sS'has'
p675
I169
sS'contemplated'
p676
I1273
sS'air'
p677
I161
sS'strangest'
p678
I2162
sS'ugly'
p679
I2163
sS'near'
p680
I885
sS'ain'
p681
I1175
sS'suppose'
p682
I2165
sS'dashboard'
p683
I2166
sS'coffin'
p684
I3584
sS'stopping'
p685
I1274
sS'cracked'
p686
I2167
sS'voice'
p687
I162
sS'study'
p688
I2168
sS'cab'
p689
I2169
sS'remembering'
p690
I2170
sS'seven'
p691
I1275
sS'changed'
p692
I2171
sS'existence'
p693
I2172
sS'played'
p694
I746
sS"'clock"
p695
I2173
sS'said:'
p696
I1276
sS'said;'
p697
I2174
sS'it'
p698
I11
sS'sting'
p699
I1898
sS'shame'
p700
I1277
sS'elicit'
p701
I2176
sS'tissue'
p702
I2177
sS'pavements'
p703
I2178
sS'foolishness'
p704
I2179
sS'tugged'
p705
I2180
sS'in'
p706
I14
sS'violin'
p707
I2181
sS'disappear'
p708
I2182
sS'if'
p709
I58
sS'grown'
p710
I2183
sS'confirmed'
p711
I1930
sS'smoke;'
p712
I1933
sS'shimmering'
p713
I1278
sS'things'
p714
I187
sS'make'
p715
I228
sS'wound'
p716
I931
sS'forehead'
p717
I1279
sS'bottled'
p718
I2186
sS'belly'
p719
I1210
sS'babies'
p720
I2188
sS'metronomic'
p721
I2189
sS'plates'
p722
I2190
sS'several'
p723
I332
sS'grows'
p724
I1985
sS'wheel'
p725
I747
sS'meets'
p726
I1988
sS'peaks'
p727
I2192
sS'fake;'
p728
I2193
sS'misery'
p729
I2194
sS'hang'
p730
I932
sS'rain'
p731
I1281
sS'hand'
p732
I199
sS'fridays'
p733
I2195
sS'plonked'
p734
I2196
sS'jealous'
p735
I1282
sS'tuna'
p736
I2197
sS'opportunity'
p737
I1283
sS'thoughts'
p738
I1284
sS'kid'
p739
I749
sS'butter'
p740
I750
sS'weakly'
p741
I1285
sS'kept'
p742
I751
sS'paralysed'
p743
I1286
sS'changes'
p744
I1877
sS'possessed'
p745
I2200
sS'failing'
p746
I2201
sS'echoed'
p747
I2202
sS'ragged'
p748
I2204
sS'contact'
p749
I1288
sS'mother'
p750
I620
sS'echoes'
p751
I2205
sS'the'
p752
I3
sS'left'
p753
I145
sS'indigo'
p754
I1289
sS'unclenched'
p755
I2207
sS'just'
p756
I70
sS'willing'
p757
I4031
sS'presume'
p758
I3940
sS'starting'
p759
I4046
sS'thanks'
p760
I536
sS'human'
p761
I537
sS'depart'
p762
I2209
sS'yes'
p763
I470
sS'yet'
p764
I304
sS'previous'
p765
I2210
sS'drape'
p766
I3713
sS'thankfully'
p767
I2971
sS'infinitely'
p768
I2134
sS'ease'
p769
I2212
sS'had'
p770
I19
sS'shout'
p771
I1291
sS'spread'
p772
I1292
sS'teenager'
p773
I2161
sS'innocent'
p774
I1293
sS'save'
p775
I752
sS'humanity'
p776
I1294
sS'gave'
p777
I933
sS'shoulder'
p778
I622
sS'usable'
p779
I1752
sS'casually'
p780
I1295
sS'mounds'
p781
I2215
sS'intercom'
p782
I2216
sS'flatulence'
p783
I2217
sS'possibly'
p784
I2219
sS'boxes'
p785
I2220
sS'neatly'
p786
I2221
sS'birth'
p787
I2222
sS'ratcheting'
p788
I2223
sS'judge'
p789
I934
sS'burns'
p790
I2224
sS'dreams'
p791
I935
sS'apart'
p792
I936
sS'desire'
p793
I753
sS'sliced'
p794
I1296
sS'scan'
p795
I3005
sS'rustle'
p796
I1297
sS'deafened'
p797
I2225
sS'patience'
p798
I1882
sS'cooler'
p799
I424
sS'kimballs'
p800
I1299
sS'gifted'
p801
I1300
sS'51'
p802
I2226
sS'viscera'
p803
I2227
sS'lapsed'
p804
I2228
sS'pavement'
p805
I1301
sS'steps'
p806
I937
sS'night'
p807
I305
sS'blades'
p808
I1729
sS'cooled'
p809
I2231
sS'right'
p810
I156
sS'old'
p811
I229
sS'creek'
p812
I754
sS'crowd'
p813
I2232
sS'people'
p814
I149
sS'crown'
p815
I1302
sS'somehow'
p816
I758
sS'dead'
p817
I353
sS'50'
p818
I2233
sS'crows'
p819
I2234
sS'unless'
p820
I3747
sS'parcel'
p821
I2235
sS'forgotten'
p822
I1573
sS'shapes'
p823
I938
sS'deaf'
p824
I1557
sS'humor'
p825
I2237
sS'ruffled'
p826
I1303
sS'for'
p827
I23
sS'bottom'
p828
I2238
sS'carts'
p829
I2239
sS'normal'
p830
I2241
sS'snickered'
p831
I2242
sS'ice'
p832
I952
sS'plucked'
p833
I2244
sS'everything'
p834
I241
sS'asking'
p835
I1305
sS'periphery'
p836
I2245
sS'denied'
p837
I2246
sS'confusion'
p838
I2247
sS'beating'
p839
I1338
sS'christmas'
p840
I2249
sS'cord'
p841
I939
sS'core'
p842
I1306
sS'knew'
p843
I134
sS'extraordinaire'
p844
I2252
sS'corn'
p845
I384
sS'pose'
p846
I2253
sS'disappeared'
p847
I623
sS'wanly'
p848
I3296
sS'discount'
p849
I2254
sS'newcomer'
p850
I1693
sS'graduated'
p851
I1307
sS'post'
p852
I1308
sS'super'
p853
I2256
sS'tyres'
p854
I1309
sS'yelling'
p855
I1358
sS'impenetrable'
p856
I2257
sS'attacks'
p857
I1310
sS'disorder'
p858
I3386
sS'ribs'
p859
I966
sS'months'
p860
I940
sS'anomalous'
p861
I2259
sS'choke'
p862
I2260
sS'o'
p863
I538
sS'costs'
p864
I2261
sS'dinner'
p865
I539
sS'plus'
p866
I1311
sS'afternoon'
p867
I1312
sS'steadily'
p868
I2262
sS'permission'
p869
I2263
sS'slightly'
p870
I385
sS'clamber'
p871
I3749
sS'hotly'
p872
I2266
sS'raised'
p873
I941
sS'digestion'
p874
I2267
sS'statements'
p875
I2268
sS'shopkeepers'
p876
I2269
sS'presence'
p877
I1313
sS'son'
p878
I80
sS'down'
p879
I98
sS'thankful'
p880
I2270
sS'thinned'
p881
I2271
sS'formidable'
p882
I2272
sS'wrap'
p883
I1314
sS'garage;'
p884
I2273
sS'frightened'
p885
I2274
sS'strangely'
p886
I756
sS'east'
p887
I1315
sS'knowingly'
p888
I2275
sS'fabric'
p889
I2276
sS'weathered'
p890
I2277
sS'support'
p891
I1788
sS'suffice'
p892
I2278
sS'sunlight'
p893
I1316
sS'fight'
p894
I1317
sS'virgin'
p895
I943
sS'grasping'
p896
I847
sS'way'
p897
I84
sS'jane'
p898
I2282
sS'music'
p899
I1889
sS'was'
p900
I15
sS'cloth'
p901
I2620
sS'happy'
p902
I1318
sS'fork'
p903
I2283
sS'sagging'
p904
I757
sS'head'
p905
I90
sS'dashboard:'
p906
I2284
sS'form'
p907
I1415
sS'forming'
p908
I1319
sS'becoming'
p909
I944
sS'napkins'
p910
I3580
sS'forever'
p911
I2286
sS'ford'
p912
I3998
sS'failure'
p913
I2287
sS'heat'
p914
I1320
sS'needles'
p915
I2288
sS'hear'
p916
I282
sS'removed'
p917
I2289
sS'nodded'
p918
I425
sS'idea;'
p919
I2618
sS'traces'
p920
I1966
sS'responding'
p921
I2291
sS'flecks'
p922
I2292
sS'traits'
p923
I2118
sS'muster'
p924
I1322
sS'prevents'
p925
I2293
sS'inside'
p926
I242
sS'attached'
p927
I2295
sS'until'
p928
I255
sS'complications'
p929
I2296
sS'anew'
p930
I1323
sS'smashed'
p931
I2297
sS'cosmos'
p932
I2298
sS'daddy'
p933
I2299
sS'boomed'
p934
I1192
sS'promises'
p935
I2300
sS'napkin'
p936
I3648
sS'ornaments'
p937
I3395
sS'compartment'
p938
I1937
sS'stain'
p939
I2636
sS'shined'
p940
I1324
sS'suspicions'
p941
I2199
sS'crumble'
p942
I785
sS'scrawl'
p943
I2304
sS'sometime'
p944
I2305
sS'exist'
p945
I2306
sS'promised'
p946
I947
sS'fatherhood'
p947
I2307
sS'hypnosis'
p948
I2308
sS'trip'
p949
I540
sS'shit'
p950
I472
sS'physical'
p951
I948
sS'pipe'
p952
I2310
sS'marking'
p953
I2311
sS'holy'
p954
I1894
sS'dotted'
p955
I2312
sS'floor'
p956
I791
sS'whereas'
p957
I2313
sS'when'
p958
I51
sS'handed'
p959
I949
sS'reality'
p960
I1325
sS'til'
p961
I2315
sS'hoarseness'
p962
I2316
sS'nestling'
p963
I2317
sS'interested'
p964
I1766
sS'creep'
p965
I2319
sS'holding'
p966
I1326
sS'papers'
p967
I950
sS'jenkins'
p968
I2320
sS'vanished'
p969
I354
sS'smell'
p970
I334
sS'roll'
p971
I2321
sS'realize'
p972
I1772
sS'dapples'
p973
I2322
sS'grasps'
p974
I2323
sS"'t"
p975
I26
sS"'s"
p976
I32
sS'palms'
p977
I2324
sS"'p"
p978
I2325
sS'helps'
p979
I3500
sS'surprise'
p980
I1327
sS'felt'
p981
I150
sS'describe'
p982
I2867
sS'polite'
p983
I2327
sS'outback'
p984
I2328
sS'fell'
p985
I427
sS'hollered'
p986
I2329
sS'dappled'
p987
I2330
sS'rolling'
p988
I2331
sS"'m"
p989
I146
sS'hurt'
p990
I889
sS'weekend'
p991
I2332
sS'died'
p992
I387
sS'fastened'
p993
I2334
sS'faster'
p994
I760
sS'bullet'
p995
I2335
sS'phone'
p996
I626
sS'shallowly'
p997
I2336
sS'together'
p998
I541
sS'jacket'
p999
I308
sS'lured'
p1000
I3932
sS'guilty'
p1001
I2338
sS'reception'
p1002
I2339
sS'time'
p1003
I73
sS'push'
p1004
I951
sS'songs'
p1005
I2340
sS'uninterested'
p1006
I2341
sS'managed'
p1007
I761
sS'whoever'
p1008
I2343
sS'skip'
p1009
I2344
sS'relieve'
p1010
I2345
sS'rod'
p1011
I1328
sS'focus'
p1012
I1329
sS'tendrils'
p1013
I2346
sS'mile'
p1014
I2347
sS'/'
p1015
I2243
sS'skin'
p1016
I215
sS'battle'
p1017
I2348
sS'chair'
p1018
I428
sS'rot'
p1019
I1331
sS'ward'
p1020
I1901
sS'row'
p1021
I2349
sS'certainly'
p1022
I1334
sS'anticipation'
p1023
I2350
sS'ves'
p1024
I2351
sS'despera'
p1025
I1335
sS'flash'
p1026
I1336
sS'father'
p1027
I216
sS'passage'
p1028
I953
sS'answered'
p1029
I543
sS'finally'
p1030
I309
sS'supplies'
p1031
I2137
sS'skirting'
p1032
I2353
sS'suffered'
p1033
I2354
sS'retreat'
p1034
I2355
sS'me'
p1035
I22
sS'protective'
p1036
I2356
sS'string'
p1037
I2357
sS'assholes'
p1038
I3769
sS'pondered'
p1039
I2359
sS'pected'
p1040
I2360
sS'choice'
p1041
I2361
sS'bustle'
p1042
I2362
sS'join'
p1043
I1864
sS'trouble'
p1044
I2364
sS'minute'
p1045
I1337
sS'cool'
p1046
I1056
sS'drag'
p1047
I2813
sS'dim'
p1048
I2365
sS'perceived'
p1049
I2366
sS'evaded'
p1050
I2674
sS'clouds'
p1051
I955
sS'impressive'
p1052
I2367
sS'hardcover'
p1053
I3771
sS'did'
p1054
I115
sS'die'
p1055
I1339
sS'dif'
p1056
I2369
sS'fragile'
p1057
I1340
sS'gun'
p1058
I2370
sS'leave'
p1059
I429
sS'grimace'
p1060
I2371
sS'gut'
p1061
I627
sS'quick'
p1062
I956
sS'movie'
p1063
I3249
sS'guy'
p1064
I243
sS'inclination'
p1065
I2372
sS'round'
p1066
I473
sS'unaware'
p1067
I2373
sS'dis'
p1068
I1341
sS'upper'
p1069
I2374
sS'blade'
p1070
I1100
sS'occurrence'
p1071
I2376
sS'porn'
p1072
I2377
sS'sigh'
p1073
I2363
sS'bead'
p1074
I3796
sS'deflating'
p1075
I2379
sS'sign'
p1076
I258
sS'slowed'
p1077
I1342
sS'shakes'
p1078
I2250
sS'dried'
p1079
I628
sS'comforting'
p1080
I2380
sS'run'
p1081
I578
sS'helpless'
p1082
I763
sS'bake'
p1083
I2381
sS'curse'
p1084
I2382
sS'appear'
p1085
I764
sS'mister'
p1086
I1246
sS'rationalized'
p1087
I2384
sS'uniform'
p1088
I2385
sS'current'
p1089
I2386
sS'rub'
p1090
I1607
sS'hungry'
p1091
I2622
sS'lazily'
p1092
I2388
sS'pulsating'
p1093
I2389
sS'shared'
p1094
I1344
sS'falling'
p1095
I2391
sS'ground'
p1096
I286
sS'filled'
p1097
I474
sS'growls'
p1098
I2393
sS'leaped'
p1099
I1909
sS'handyman'
p1100
I2395
sS'envy'
p1101
I3776
sS'understanding'
p1102
I2396
sS'water'
p1103
I310
sS'propounded'
p1104
I2999
sS'baseball'
p1105
I1346
sS'yards'
p1106
I2398
sS'address'
p1107
I2399
sS'alone'
p1108
I1347
sS'along'
p1109
I630
sS'roaring'
p1110
I2400
sS'teacher'
p1111
I1348
sS'change'
p1112
I631
sS'wait'
p1113
I388
sS'box'
p1114
I475
sS'boy'
p1115
I389
sS'thirty'
p1116
I2401
sS'battling'
p1117
I2402
sS'dusty'
p1118
I1584
sS'shift'
p1119
I1350
sS'studied'
p1120
I2404
sS'grinned'
p1121
I959
sS'vibrating'
p1122
I2405
sS'husband'
p1123
I2652
sS'crumbled'
p1124
I2406
sS'diagnosed'
p1125
I2407
sS'prude'
p1126
I2408
sS'usually'
p1127
I1351
sS'shifting'
p1128
I2255
sS'weird'
p1129
I544
sS'pillow'
p1130
I960
sS'teenage'
p1131
I632
sS'love'
p1132
I961
sS'raise'
p1133
I3978
sS'hiking'
p1134
I1352
sS'extra'
p1135
I2410
sS'merely'
p1136
I2411
sS'cacophony'
p1137
I2412
sS'prefer'
p1138
I2413
sS'marked'
p1139
I476
sS'bloody'
p1140
I2414
sS'losing'
p1141
I2415
sS'lamppost'
p1142
I2416
sS'thrum'
p1143
I2417
sS'eurysm'
p1144
I2418
sS'traversing'
p1145
I2419
sS'swallowed'
p1146
I1353
sS'scaly'
p1147
I2420
sS'sympathetic'
p1148
I2422
sS'yep'
p1149
I2423
sS'working'
p1150
I962
sS'prove'
p1151
I2424
sS'forever;'
p1152
I2425
sS'angry'
p1153
I765
sS'quivering'
p1154
I2426
sS'visit'
p1155
I2427
sS'only'
p1156
I111
sS'tightly'
p1157
I963
sS'sports'
p1158
I1614
sS'insides'
p1159
I2428
sS'live'
p1160
I766
sS'wonderfully'
p1161
I2429
sS'wondering'
p1162
I2431
sS'memory'
p1163
I1354
sS'australian'
p1164
I2432
sS'loafing'
p1165
I2433
sS'today'
p1166
I545
sS'scratched'
p1167
I2434
sS'dismay'
p1168
I2435
sS'entrance'
p1169
I2436
sS'teased'
p1170
I1356
sS'cently'
p1171
I2437
sS'apparent'
p1172
I2438
sS'cashier'
p1173
I2439
sS'clue'
p1174
I2441
sS'everywhere'
p1175
I1490
sS'flapping'
p1176
I1357
sS'hesitated'
p1177
I2444
sS'scratches'
p1178
I3490
sS'slinks'
p1179
I3308
sS'cases'
p1180
I3493
sS'effort'
p1181
I2448
sS'easiest'
p1182
I2449
sS'diner'
p1183
I306
sS'graphic'
p1184
I2450
sS'sheds'
p1185
I1360
sS'seeped'
p1186
I2451
sS'collision'
p1187
I2452
sS'car'
p1188
I66
sS'pretend'
p1189
I1361
sS'soul'
p1190
I1362
sS'linger'
p1191
I3980
sS'wallet'
p1192
I2454
sS'sour'
p1193
I2477
sS'can'
p1194
I71
sS'following'
p1195
I517
sS'making'
p1196
I1363
sS'laughter'
p1197
I690
sS'dollars'
p1198
I755
sS'deceased'
p1199
I2458
sS'imitation'
p1200
I3012
sS'heart'
p1201
I206
sS'crazy'
p1202
I967
sS'grouchy'
p1203
I2461
sS'fracturing'
p1204
I2462
sS'figure'
p1205
I1185
sS'distracted'
p1206
I3693
sS'outline'
p1207
I2485
sS'confused'
p1208
I1393
sS'paused'
p1209
I546
sS'heard'
p1210
I140
sS'stroke'
p1211
I633
sS'gnaws'
p1212
I2466
sS'chin'
p1213
I1364
sS'dropped'
p1214
I477
sS'allowed'
p1215
I3590
sS'topple'
p1216
I3789
sS'redness'
p1217
I634
sS'pink'
p1218
I2467
sS'scar'
p1219
I1515
sS'winter'
p1220
I1367
sS'tilt'
p1221
I1333
sS'discussion'
p1222
I1369
sS'spreads'
p1223
I2468
sS'ping'
p1224
I1695
sS'pine'
p1225
I2470
sS'write'
p1226
I857
sS'flank'
p1227
I2472
sS'pure'
p1228
I2473
sS'significant'
p1229
I3188
sS'gaping'
p1230
I2474
sS'unbelievable'
p1231
I2475
sS'clattered'
p1232
I1836
sS'maw'
p1233
I969
sS'may'
p1234
I767
sS'spot'
p1235
I635
sS'pathetic'
p1236
I2478
sS'crashed'
p1237
I2479
sS'produce'
p1238
I1712
sS'mad'
p1239
I2481
sS'paroxysm'
p1240
I3422
sS'such'
p1241
I217
sS'suck'
p1242
I1370
sS'destructive'
p1243
I2483
sS'guys'
p1244
I547
sS'grow'
p1245
I1371
sS'man'
p1246
I86
sS'vomited'
p1247
I2484
sS'stress'
p1248
I970
sS'branches'
p1249
I548
sS'remember'
p1250
I486
sS'liquid'
p1251
I971
sS'whenever'
p1252
I2486
sS'maybe'
p1253
I283
sS'groaned'
p1254
I2487
sS'tale'
p1255
I2488
sS'darkened'
p1256
I3739
sS'so'
p1257
I53
sS'deposit'
p1258
I1373
sS'supernatural'
p1259
I3825
sS'swollen'
p1260
I972
sS'downsized'
p1261
I2489
sS'tall'
p1262
I973
sS'pulled'
p1263
I311
sS'talk'
p1264
I1732
sS'unconsciously'
p1265
I2491
sS'imagining'
p1266
I974
sS'cute'
p1267
I1374
sS'hoped'
p1268
I3442
sS'breaking'
p1269
I2492
sS'shoes'
p1270
I975
sS'nerve'
p1271
I2493
sS'organic'
p1272
I3687
sS'indeed'
p1273
I2494
sS'pointed'
p1274
I636
sS'logged'
p1275
I3931
sS'denial'
p1276
I3026
sS'years'
p1277
I390
sS'ended'
p1278
I802
sS'tablets'
p1279
I2495
sS'motions'
p1280
I2496
sS'pitch'
p1281
I1375
sS'cold'
p1282
I157
sS'still'
p1283
I105
sS'birds'
p1284
I976
sS'cof'
p1285
I2138
sS'limbs'
p1286
I2497
sS'police'
p1287
I1376
sS'thumb'
p1288
I977
sS'interesting'
p1289
I2499
sS'jim'
p1290
I373
sS'sixties'
p1291
I1923
sS'window'
p1292
I478
sS'revulsion'
p1293
I2501
sS'farmer'
p1294
I769
sS'mail'
p1295
I2502
sS'main'
p1296
I1379
sS'happened'
p1297
I637
sS'lonely'
p1298
I2503
sS'craned'
p1299
I2230
sS'tucked'
p1300
I2505
sS'3'
p1301
I2506
sS'nod'
p1302
I978
sS'conversations'
p1303
I2507
sS'killer'
p1304
I2508
sS'bleestories'
p1305
I2509
sS'juilliard'
p1306
I3690
sS'sooner'
p1307
I2510
sS'underneath'
p1308
I1767
sS'lunch'
p1309
I1380
sS'touching'
p1310
I2512
sS'course'
p1311
I431
sS'drilling'
p1312
I2514
sS'half'
p1313
I356
sS'not'
p1314
I54
sS'now'
p1315
I78
sS'killed'
p1316
I479
sS'nor'
p1317
I1774
sS'accommodate'
p1318
I2517
sS'term'
p1319
I2518
sS'shouted'
p1320
I770
sS'name'
p1321
I284
sS'streaks'
p1322
I2519
sS'chuckled'
p1323
I2520
sS'corners'
p1324
I1381
sS'didn'
p1325
I89
sS'debating'
p1326
I2522
sS'peered'
p1327
I2523
sS'honked'
p1328
I2524
sS'nodding'
p1329
I1383
sS'realise'
p1330
I432
sS'jersey'
p1331
I3851
sS'veins'
p1332
I2525
sS'eighties'
p1333
I980
sS'gt;'
p1334
I2526
sS'seldom'
p1335
I2648
sS'capped'
p1336
I2527
sS'car;'
p1337
I2528
sS'en'
p1338
I2529
sS'fired'
p1339
I1384
sS'blinked'
p1340
I2530
sS'crushing'
p1341
I1385
sS'yeah'
p1342
I433
sS'hurried'
p1343
I1386
sS'goose'
p1344
I2531
sS'catching'
p1345
I1796
sS'ex'
p1346
I981
sS'year'
p1347
I982
sS'girl'
p1348
I188
sS'dripped'
p1349
I1741
sS'relive'
p1350
I1555
sS'giddy'
p1351
I2534
sS'living'
p1352
I983
sS'putrid'
p1353
I1388
sS'opened'
p1354
I434
sS'space'
p1355
I2535
sS'haste'
p1356
I2056
sS'factory'
p1357
I2536
sS'thirst'
p1358
I2537
sS'hastily'
p1359
I2538
sS'looking'
p1360
I163
sS'stupid'
p1361
I553
sS'trauma'
p1362
I1390
sS'rational'
p1363
I2539
sS'internet'
p1364
I772
sS'rolex'
p1365
I2540
sS'assurance'
p1366
I2541
sS'gush'
p1367
I2542
sS'inevitably'
p1368
I1391
sS'earlier'
p1369
I1392
sS'monster'
p1370
I883
sS'state'
p1371
I1135
sS'cars'
p1372
I392
sS'million'
p1373
I2543
sS'seventh'
p1374
I2390
sS'quite'
p1375
I985
sS'bumps'
p1376
I1394
sS'besides'
p1377
I1395
sS'ajar'
p1378
I2546
sS'cough'
p1379
I1396
sS'remainder'
p1380
I2547
sS'inevitable'
p1381
I2548
sS'card'
p1382
I2549
sS'care'
p1383
I638
sS'underwear'
p1384
I2550
sS'couldn'
p1385
I435
sS'intelligence'
p1386
I3705
sS'undigested'
p1387
I2551
sS'modest'
p1388
I2552
sS'turn'
p1389
I209
sS'person'
p1390
I3339
sS'place'
p1391
I218
sS'vision'
p1392
I942
sS'swing'
p1393
I1872
sS'domed'
p1394
I2555
sS'view'
p1395
I1744
sS'childhood'
p1396
I1199
sS'waited'
p1397
I549
sS'first'
p1398
I127
sS'blind'
p1399
I986
sS'brain;'
p1400
I2556
sS'initial'
p1401
I2279
sS'impossibly'
p1402
I1400
sS'spoken'
p1403
I2557
sS'writhe'
p1404
I2342
sS'gargling'
p1405
I2559
sS'one'
p1406
I64
sS'long'
p1407
I142
sS'directly'
p1408
I1401
sS'fi'
p1409
I3029
sS'sounds'
p1410
I335
sS'drove'
p1411
I639
sS'open'
p1412
I158
sS'tomorrow'
p1413
I1403
sS'ripping'
p1414
I1922
sS'size'
p1415
I640
sS'tingling'
p1416
I1404
sS'city'
p1417
I357
sS'given'
p1418
I774
sS'checked'
p1419
I988
sS'silent'
p1420
I989
sS'stuck'
p1421
I1406
sS'caught'
p1422
I312
sS'slept'
p1423
I990
sS'plastic'
p1424
I1407
sS'anyone'
p1425
I775
sS'2'
p1426
I991
sS'stuffed'
p1427
I992
sS'white'
p1428
I230
sS'puddle'
p1429
I3807
sS'friend'
p1430
I393
sS'eyes'
p1431
I68
sS'hug'
p1432
I2564
sS'prissy'
p1433
I2565
sS'femur'
p1434
I2566
sS'that'
p1435
I16
sS'streaked'
p1436
I2568
sS'huh'
p1437
I2570
sS'accurately'
p1438
I2062
sS'expanse'
p1439
I2573
sS'buts'
p1440
I2574
sS'cops'
p1441
I641
sS'rhythm'
p1442
I2352
sS'shock'
p1443
I1644
sS'eyed'
p1444
I993
sS'caging'
p1445
I2575
sS'junkyard'
p1446
I2576
sS'copy'
p1447
I994
sS'cleanse'
p1448
I1408
sS'than'
p1449
I159
sS'merged'
p1450
I3211
sS'wide'
p1451
I336
sS'television'
p1452
I2050
sS'cracks'
p1453
I1409
sS'15'
p1454
I1410
sS'14'
p1455
I1411
sS'scraping'
p1456
I1412
sS'crowded'
p1457
I3035
sS'transferred'
p1458
I2579
sS'coats'
p1459
I2580
sS'future'
p1460
I2116
sS'knives'
p1461
I2582
sS'apples'
p1462
I139
sS'were'
p1463
I62
sS'bauer'
p1464
I2126
sS'asleep'
p1465
I1413
sS'trophy'
p1466
I2586
sS'browser'
p1467
I2587
sS'and'
p1468
I6
sS'dutifully'
p1469
I2588
sS'gathering'
p1470
I2589
sS'illness'
p1471
I2590
sS'spotter'
p1472
I2591
sS'remained'
p1473
I776
sS'sac'
p1474
I1414
sS'bolts'
p1475
I3075
sS'turned'
p1476
I177
sS'argument'
p1477
I1223
sS'slap'
p1478
I2157
sS'voices'
p1479
I1272
sS'ant'
p1480
I2595
sS'say'
p1481
I285
sS'buried'
p1482
I2596
sS'horsepower'
p1483
I2597
sS'breakfast'
p1484
I642
sS'sap'
p1485
I2598
sS'saw'
p1486
I91
sS'any'
p1487
I178
sS'ferring'
p1488
I2599
sS'sat'
p1489
I313
sS'offering'
p1490
I2285
sS'downwards'
p1491
I1416
sS'aside'
p1492
I2602
sS'shocked'
p1493
I1417
sS'note'
p1494
I1418
sS'emphasis'
p1495
I2603
sS'take'
p1496
I179
sS'online'
p1497
I1419
sS'wanting'
p1498
I964
sS'wonder'
p1499
I2604
sS'spasming'
p1500
I2605
sS'specks'
p1501
I1944
sS'begin'
p1502
I333
sS'sure'
p1503
I151
sS'pain'
p1504
I244
sS'trace'
p1505
I2607
sS'opposite'
p1506
I777
sS'syllable'
p1507
I2608
sS'price'
p1508
I2609
sS'enter'
p1509
I1200
sS'paid'
p1510
I643
sS'boiling'
p1511
I2611
sS'keen'
p1512
I3927
sS'sheets'
p1513
I2612
sS'admonishment'
p1514
I2613
sS'knee'
p1515
I2614
sS'cleared'
p1516
I995
sS'littering'
p1517
I2569
sS'ering'
p1518
I2616
sS'lawn'
p1519
I1420
sS'especially'
p1520
I1321
sS'fills'
p1521
I2294
sS'average'
p1522
I1421
sS'later'
p1523
I480
sS'steady'
p1524
I2621
sS'drive'
p1525
I946
sS'tooth'
p1526
I2623
sS'jitters'
p1527
I2624
sS'prepare'
p1528
I3688
sS'dolor'
p1529
I2625
sS'7:30'
p1530
I2626
sS'shop'
p1531
I394
sS'walking'
p1532
I481
sS'shot'
p1533
I644
sS'show'
p1534
I550
sS'friction'
p1535
I2627
sS'fifty'
p1536
I2628
sS'peaches'
p1537
I996
sS'bright'
p1538
I551
sS'therapist'
p1539
I2629
sS'shoe'
p1540
I1422
sS'scalding'
p1541
I3692
sS'corner'
p1542
I437
sS'sheltered'
p1543
I2187
sS'imagined'
p1544
I645
sS'curled'
p1545
I1203
sS'slow'
p1546
I1345
sS'true'
p1547
I778
sS'stained'
p1548
I2632
sS'enough'
p1549
I189
sS'relaxes'
p1550
I2617
sS'tears'
p1551
I259
sS'going'
p1552
I164
sS'black'
p1553
I552
sS'escent'
p1554
I2634
sS'enthusiasm'
p1555
I3164
sS'robe'
p1556
I1405
sS'220'
p1557
I2637
sS'clawing'
p1558
I2638
sS'arlon'
p1559
I1424
sS'hooting'
p1560
I997
sS'lieved'
p1561
I2639
sS'get'
p1562
I99
sS'wetting'
p1563
I2641
sS'freezing'
p1564
I1425
sS'expectation'
p1565
I2642
sS'truly'
p1566
I1389
sS'nearly'
p1567
I779
sS'pursed'
p1568
I3826
sS'prided'
p1569
I2644
sS'is'
p1570
I36
sS'reveal'
p1571
I2645
sS'skewered'
p1572
I2646
sS'aluminum'
p1573
I2647
sS'leather'
p1574
I1427
sS'irrational'
p1575
I2476
sS'fainted'
p1576
I2649
sS'morning'
p1577
I358
sS'naked'
p1578
I998
sS'miles'
p1579
I984
sS'losers'
p1580
I2650
sS'worries'
p1581
I1428
sS'tent'
p1582
I1429
sS'where'
p1583
I123
sS'silently'
p1584
I1151
sS'screws'
p1585
I3311
sS'morose'
p1586
I2653
sS'burst'
p1587
I2654
sS'violated'
p1588
I2655
sS'ity'
p1589
I2656
sS'innards'
p1590
I2657
sS'seat'
p1591
I201
sS'college'
p1592
I646
sS'parking'
p1593
I554
sS'sport'
p1594
I2600
sS'smiling'
p1595
I3052
sS'concern'
p1596
I1430
sS'surfaces'
p1597
I2660
sS'scrolled'
p1598
I3132
sS'camping'
p1599
I555
sS'ways'
p1600
I647
sS'outside'
p1601
I395
sS"'re"
p1602
I249
sS'rephrase'
p1603
I2662
sS'between'
p1604
I314
sS'teens'
p1605
I2664
sS'reading'
p1606
I1000
sS'across'
p1607
I219
sS'oversized'
p1608
I2665
sS'whispered'
p1609
I2666
sS'ima'
p1610
I1955
sS'notice'
p1611
I1432
sS'laced'
p1612
I3056
sS'pahchay'
p1613
I891
sS'blame'
p1614
I2668
sS'spare'
p1615
I2669
sS'tub'
p1616
I1634
sS'killing'
p1617
I1433
sS'come'
p1618
I260
sS'abduction'
p1619
I2672
sS'reaction'
p1620
I2673
sS'contortions'
p1621
I3064
sS'many'
p1622
I261
sS'region'
p1623
I2675
sS'quiet'
p1624
I648
sS'flipped'
p1625
I1001
sS'personal'
p1626
I1435
sS's'
p1627
I780
sS'loudly'
p1628
I781
sS'aura'
p1629
I1002
sS'awkward'
p1630
I2516
sS'wheels'
p1631
I2678
sS'comes'
p1632
I1003
sS'among'
p1633
I1004
sS'madness'
p1634
I2679
sS'passenger'
p1635
I471
sS'sixth'
p1636
I2681
sS'partment'
p1637
I3836
sS'jeans'
p1638
I482
sS'period'
p1639
I1436
sS'terminally'
p1640
I2577
sS'twin'
p1641
I1005
sS'stretched'
p1642
I782
sS'babbling'
p1643
I2684
sS'ately'
p1644
I2685
sS'constant'
p1645
I3455
sS'twig'
p1646
I2686
sS'precious'
p1647
I3838
sS'boat'
p1648
I556
sS'logic'
p1649
I2688
sS'fitful'
p1650
I2689
sS'destroyed'
p1651
I2690
sS'comb'
p1652
I2671
sS'reflec'
p1653
I2691
sS'stretch'
p1654
I783
sS'west'
p1655
I1437
sS'rebuild'
p1656
I2692
sS'vacation'
p1657
I2693
sS'mark'
p1658
I483
sS'breath'
p1659
I359
sS'combined'
p1660
I2694
sS'stripped'
p1661
I1623
sS'abating'
p1662
I2696
sS'excreting'
p1663
I2697
sS'exhaustion'
p1664
I2698
sS'beckons'
p1665
I3260
sS'engine'
p1666
I557
sS'direction'
p1667
I1438
sS'educated'
p1668
I2699
sS'shopping'
p1669
I784
sS'graveyard'
p1670
I1439
sS'juts'
p1671
I2700
sS'offered'
p1672
I1440
sS'formed'
p1673
I2701
sS'wounds'
p1674
I2670
sS'gripped'
p1675
I1006
sS'dramatic'
p1676
I2702
sS'wake'
p1677
I1007
sS'covers'
p1678
I2303
sS'stems'
p1679
I2704
sS'definable'
p1680
I2705
sS'hidden'
p1681
I1208
sS'those'
p1682
I165
sS'sound'
p1683
I180
sS'inrush'
p1684
I2706
sS'myself'
p1685
I128
sS'folding'
p1686
I2707
sS'these'
p1687
I440
sS'mount'
p1688
I1441
sS'sobbed'
p1689
I1442
sS'plight'
p1690
I3709
sS'cash'
p1691
I1088
sS'admired'
p1692
I2460
sS'cast'
p1693
I1443
sS'forefinger'
p1694
I2711
sS'newspaper'
p1695
I1444
sS'situation'
p1696
I786
sS'shops'
p1697
I650
sS'stupidest'
p1698
I2712
sS'moorings'
p1699
I2713
sS'girth'
p1700
I1445
sS'eventually'
p1701
I1446
sS'soil'
p1702
I1009
sS'inflatable'
p1703
I2714
sS'engaged'
p1704
I1447
sS'coffee'
p1705
I396
sS'snaking'
p1706
I2715
sS'according'
p1707
I1378
sS'middle'
p1708
I651
sS'regularity'
p1709
I2716
sS'good'
p1710
I220
sS'minds'
p1711
I3845
sS'heels'
p1712
I2651
sS'property'
p1713
I2719
sS'ivy'
p1714
I2720
sS'worry'
p1715
I1449
sS'movements'
p1716
I2721
sS'shopkeeper'
p1717
I1052
sS'bags'
p1718
I1450
sS'different'
p1719
I788
sS'psychopath'
p1720
I3460
sS'shuts'
p1721
I2722
sS'considerable'
p1722
I3445
sS'doctor'
p1723
I2723
sS'pay'
p1724
I1452
sS'perpetually'
p1725
I1453
sS'same'
p1726
I181
sS'check'
p1727
I2724
sS'thinning'
p1728
I2725
sS'clammy'
p1729
I1010
sS'moss'
p1730
I2726
sS'figures'
p1731
I3149
sS'stepped'
p1732
I315
sS'frequented'
p1733
I2727
sS'events'
p1734
I789
sS'crotch'
p1735
I2728
sS'week'
p1736
I498
sS'exhaust'
p1737
I1454
sS'oil'
p1738
I2730
sS'booths'
p1739
I1012
sS'arctic'
p1740
I2732
sS'driver'
p1741
I262
sS'vista'
p1742
I2733
sS'reluctantly'
p1743
I2677
sS'running'
p1744
I337
sS'fruit'
p1745
I1062
sS'delicate'
p1746
I2734
sS'intended'
p1747
I3023
sS'climbing'
p1748
I1535
sS'speechless'
p1749
I3066
sS'swallow'
p1750
I3519
sS'complained'
p1751
I2737
sS'commemorate'
p1752
I2229
sS'ruffling'
p1753
I2739
sS'dying'
p1754
I2740
sS'puzzled'
p1755
I2741
sS'no'
p1756
I55
sS'roughly'
p1757
I2743
sS'severe'
p1758
I2744
sS'breeze'
p1759
I825
sS'solve'
p1760
I2745
sS'relief'
p1761
I652
sS'bottle'
p1762
I2746
sS'very'
p1763
I348
sS'model'
p1764
I2748
sS'dimension'
p1765
I2749
sS'bodies'
p1766
I1013
sS'parody'
p1767
I2750
sS'taxi'
p1768
I2751
sS'summer'
p1769
I2752
sS'neighborhood'
p1770
I2753
sS'desolate'
p1771
I1457
sS'clogging'
p1772
I1971
sS'being'
p1773
I398
sS'money'
p1774
I484
sS'exaggerating'
p1775
I2754
sS'rest'
p1776
I399
sS'violent'
p1777
I2756
sS'growled'
p1778
I2757
sS'kill'
p1779
I792
sS'ounces'
p1780
I2758
sS'touch'
p1781
I485
sS'culde'
p1782
I2759
sS'speed'
p1783
I1458
sS'multiples'
p1784
I2760
sS'weekly'
p1785
I2761
sS'blow'
p1786
I1014
sS'uttered'
p1787
I2762
sS'death'
p1788
I171
sS'generator'
p1789
I563
sS'thinking'
p1790
I316
sS'rose'
p1791
I1015
sS'seems'
p1792
I558
sS'except'
p1793
I653
sS'improvement'
p1794
I2764
sS'lets'
p1795
I2765
sS'setting'
p1796
I2318
sS'pile'
p1797
I1016
sS'4'
p1798
I2767
sS'hind'
p1799
I2768
sS'plumes'
p1800
I1017
sS'real'
p1801
I836
sS'fucked'
p1802
I3909
sS'around'
p1803
I72
sS'desperately'
p1804
I2676
sS'read'
p1805
I438
sS'stung'
p1806
I2770
sS'dealing'
p1807
I3143
sS'tissues'
p1808
I4018
sS'gonna'
p1809
I2771
sS'confines'
p1810
I2772
sS'early'
p1811
I680
sS'trailing'
p1812
I4024
sS'traffic'
p1813
I1460
sS'mom'
p1814
I263
sS'using'
p1815
I793
sS'swatch'
p1816
I2773
sS'lady'
p1817
I2742
sS'vague'
p1818
I2775
sS'grin'
p1819
I681
sS'furniture'
p1820
I2777
sS'bonding'
p1821
I3472
sS'satisfaction'
p1822
I2683
sS'towel'
p1823
I2779
sS'stranger'
p1824
I1018
sS'pounds'
p1825
I1019
sS'nutrients'
p1826
I2780
sS'swaying'
p1827
I2781
sS'towed'
p1828
I2782
sS'serves'
p1829
I2783
sS"'ve"
p1830
I172
sS'facing'
p1831
I1461
sS'footballs'
p1832
I1462
sS'laughing'
p1833
I794
sS'fully'
p1834
I1020
sS'gaps'
p1835
I2532
sS'upside'
p1836
I1943
sS'nice'
p1837
I579
sS'twelve'
p1838
I2786
sS'explaining'
p1839
I2787
sS'pointlessly'
p1840
I2788
sS'eddie'
p1841
I2790
sS'snatched'
p1842
I795
sS'images'
p1843
I1022
sS'ascent'
p1844
I1023
sS'slice'
p1845
I1464
sS'dimensions'
p1846
I2791
sS'memories'
p1847
I1465
sS'tube'
p1848
I1024
sS'cleanser'
p1849
I1025
sS'defenceless'
p1850
I2794
sS'frantically'
p1851
I1986
sS'stops'
p1852
I2333
sS'throat'
p1853
I317
sS'dealership'
p1854
I2797
sS'belches'
p1855
I2798
sS'dimples'
p1856
I1466
sS'forks'
p1857
I2799
sS'tubs'
p1858
I2800
sS'knife'
p1859
I487
sS'unsuccessfully'
p1860
I2801
sS'muttered'
p1861
I2802
sS'welcome'
p1862
I2803
sS'roast'
p1863
I2804
sS'business'
p1864
I1026
sS'seconds'
p1865
I488
sS'unkempt'
p1866
I1591
sS'strained'
p1867
I2806
sS'broken'
p1868
I796
sS'seducing'
p1869
I2807
sS'drums'
p1870
I2808
sS'fished'
p1871
I2553
sS'throw'
p1872
I797
sS'on'
p1873
I24
sS'stone'
p1874
I798
sS'ok'
p1875
I1467
sS'pulsated'
p1876
I3859
sS'origins'
p1877
I2810
sS'oh'
p1878
I559
sS'of'
p1879
I9
sS'cares'
p1880
I2811
sS'favorite'
p1881
I2631
sS'meaning'
p1882
I2778
sS'slender'
p1883
I2814
sS'meal'
p1884
I1468
sS"'d"
p1885
I117
sS'wolf'
p1886
I2815
sS'stand'
p1887
I190
sS'pockets'
p1888
I1469
sS'stank'
p1889
I1470
sS'mean'
p1890
I360
sS'deranged'
p1891
I2816
sS'or'
p1892
I59
sS'road'
p1893
I264
sS'utterly'
p1894
I2818
sS'burning'
p1895
I2819
sS'weighs'
p1896
I2820
sS'trot'
p1897
I2392
sS'image'
p1898
I799
sS'wads'
p1899
I2821
sS'cursed'
p1900
I2822
sS'freaked'
p1901
I2823
sS'rising'
p1902
I1703
sS'homeless'
p1903
I2825
sS'heated'
p1904
I2500
sS'elementary'
p1905
I2827
sS'forehead;'
p1906
I2828
sS'happening'
p1907
I2829
sS'your'
p1908
I245
sS'cious'
p1909
I2830
sS'technically'
p1910
I2831
sS'stare'
p1911
I800
sS'her'
p1912
I25
sS'area'
p1913
I1027
sS'slurped'
p1914
I2833
sS'gleam'
p1915
I2120
sS'there'
p1916
I48
sS'blurred'
p1917
I2835
sS'hey'
p1918
I2836
sS'sides'
p1919
I3473
sS'dreaming'
p1920
I3662
sS'start'
p1921
I401
sS'drank'
p1922
I1138
sS'oesophagus'
p1923
I2838
sS'low'
p1924
I605
sS'lot'
p1925
I489
sS'jaws'
p1926
I665
sS'bubble'
p1927
I1471
sS'energy'
p1928
I3084
sS'wobbly'
p1929
I2840
sS'mornings'
p1930
I2841
sS'costumers'
p1931
I3862
sS'furthest'
p1932
I2843
sS'gory'
p1933
I2844
sS'peaceful'
p1934
I2695
sS'contort'
p1935
I2847
sS'bookstore'
p1936
I654
sS'recoil'
p1937
I3761
sS'survived'
p1938
I2848
sS'squawked'
p1939
I2849
sS'optical'
p1940
I1813
sS'trying'
p1941
I490
sS'with'
p1942
I27
sS'buying'
p1943
I2851
sS'longer'
p1944
I561
sS'abused'
p1945
I2852
sS'pull'
p1946
I655
sS'hire'
p1947
I1472
sS'arranged'
p1948
I2854
sS'bachelor'
p1949
I3544
sS'chomped'
p1950
I2855
sS'nearest'
p1951
I2856
sS'sadness'
p1952
I2857
sS'dirty'
p1953
I2858
sS'grasp'
p1954
I2859
sS'chapped'
p1955
I2860
sS'grass'
p1956
I338
sS'torso'
p1957
I2861
sS'creeping'
p1958
I2862
sS'rust'
p1959
I1473
sS'gone'
p1960
I222
sS'palate'
p1961
I2863
sS'pleasantville'
p1962
I3925
sS'taste'
p1963
I2865
sS'certain'
p1964
I2866
sS'stealing'
p1965
I2326
sS'am'
p1966
I67
sS'sales'
p1967
I1140
sS'deep'
p1968
I246
sS'an'
p1969
I108
sS'ap'
p1970
I2868
sS'as'
p1971
I21
sS'scanned'
p1972
I1474
sS'ensuing'
p1973
I2869
sS'at'
p1974
I20
sS'girlfriend'
p1975
I1144
sS'watched'
p1976
I562
sS'moves'
p1977
I2871
sS'dawn'
p1978
I2083
sS'protruded'
p1979
I2873
sS'fill'
p1980
I1475
sS'again'
p1981
I96
sS'stumbled'
p1982
I2874
sS'beyond'
p1983
I3088
sS'rubbed'
p1984
I2875
sS'credibility'
p1985
I2876
sS'drivers'
p1986
I1476
sS'storage'
p1987
I2877
sS'insurance'
p1988
I3089
sS'rubber'
p1989
I2878
sS'tight'
p1990
I656
sS'clamouring'
p1991
I2879
sS'leap'
p1992
I3967
sS'5'
p1993
I2880
sS'you'
p1994
I28
sS'jell'
p1995
I1993
sS'thousand'
p1996
I1477
sS'attack'
p1997
I3703
sS'briefly'
p1998
I1030
sS'shelter'
p1999
I1478
sS'teeth'
p2000
I200
sS'drift'
p2001
I2883
sS'includes'
p2002
I2884
sS'waving'
p2003
I2885
sS'dies'
p2004
I2886
sS'important'
p2005
I2887
sS'sheepishly'
p2006
I1825
sS'peak'
p2007
I1031
sS'recognise'
p2008
I1032
sS'detritus'
p2009
I2457
sS'sneeze'
p2010
I2889
sS'pool'
p2011
I2890
sS'building'
p2012
I1479
sS'condensation'
p2013
I1480
sS'calls'
p2014
I1481
sS'wife'
p2015
I1482
sS'sobbing'
p2016
I2891
sS'apathy'
p2017
I2892
sS'curve'
p2018
I1033
sS'sounded'
p2019
I1034
sS'moonlight'
p2020
I2893
sS'excretion'
p2021
I1181
sS'tightened'
p2022
I2895
sS'mass'
p2023
I2896
sS'wherever'
p2024
I1483
sS'smirk'
p2025
I1994
sS'alright'
p2026
I1484
sS'numbing'
p2027
I2897
sS'tanned'
p2028
I2817
sS'original'
p2029
I1485
sS'growling'
p2030
I2899
sS'all'
p2031
I57
sS'throes'
p2032
I2900
sS'forget'
p2033
I1486
sS'washed'
p2034
I1216
sS'crept'
p2035
I2025
sS'dollar'
p2036
I1035
sS'month'
p2037
I1036
sS'turbocharged'
p2038
I1832
sS'ceased'
p2039
I2904
sS'cornfield'
p2040
I1487
sS'fairness'
p2041
I2905
sS'messy'
p2042
I2906
sS'follow'
p2043
I1037
sS'disk'
p2044
I2907
sS'children'
p2045
I1174
sS'causes'
p2046
I2909
sS'carpet'
p2047
I2910
sS'glimpse'
p2048
I1038
sS'batches'
p2049
I1488
sS'wish'
p2050
I3803
sS'hunting'
p2051
I805
sS'sparkle'
p2052
I2911
sS'ignorant'
p2053
I2443
sS'regulars'
p2054
I2912
sS'tain'
p2055
I2913
sS'to'
p2056
I8
sS'tail'
p2057
I2914
sS'shredding'
p2058
I2915
sS'wants'
p2059
I1491
sS'issued'
p2060
I2916
sS'smile'
p2061
I288
sS'hideous'
p2062
I2917
sS'case'
p2063
I1568
sS'woman'
p2064
I265
sS'appointment'
p2065
I2919
sS'returned'
p2066
I462
sS'sitting'
p2067
I421
sS'far'
p2068
I202
sS'horror'
p2069
I806
sS'swallows'
p2070
I1561
sS'souls'
p2071
I2922
sS'coursing'
p2072
I1940
sS'worst'
p2073
I1492
sS'traumatic'
p2074
I4039
sS'fall'
p2075
I807
sS'times;'
p2076
I3633
sS'admonition'
p2077
I3809
sS'difference'
p2078
I2924
sS'improve'
p2079
I3866
sS'ranting'
p2080
I2925
sS'higgins'
p2081
I1040
sS'drugged'
p2082
I2731
sS'ambulance'
p2083
I2928
sS'list'
p2084
I361
sS'joined'
p2085
I2929
sS'large'
p2086
I289
sS'jointed'
p2087
I2708
sS'sand'
p2088
I290
sS'swirling'
p2089
I1998
sS'dusky'
p2090
I2931
sS'small'
p2091
I231
sS'tear'
p2092
I2932
sS'sank'
p2093
I1041
sS'flick'
p2094
I2014
sS'charlie'
p2095
I2934
sS'rats'
p2096
I1493
sS'portable'
p2097
I2935
sS'fence'
p2098
I903
sS'tea'
p2099
I1494
sS'streets'
p2100
I2937
sS'fragility'
p2101
I2032
sS'tee'
p2102
I905
sS'nothingness'
p2103
I2709
sS'past'
p2104
I402
sS'orgasm'
p2105
I2940
sS'stamping'
p2106
I2941
sS'perspective'
p2107
I1496
sS'pass'
p2108
I808
sS'further'
p2109
I266
sS'creatures'
p2110
I2942
sS'trick'
p2111
I2710
sS'what'
p2112
I50
sS'stood'
p2113
I191
sS'darkness'
p2114
I441
sS'clock'
p2115
I2944
sS'sun'
p2116
I227
sS'section'
p2117
I1044
sS'stool'
p2118
I1497
sS'brief'
p2119
I2945
sS'crush'
p2120
I2947
sS'version'
p2121
I2948
sS'lungfuls'
p2122
I3911
sS'sup'
p2123
I2949
sS'fixings'
p2124
I2950
sS'learned'
p2125
I2951
sS'luxuries'
p2126
I2952
sS'racing'
p2127
I1498
sS'plush'
p2128
I1499
sS'straining'
p2129
I3697
sS'womb'
p2130
I1116
sS'full'
p2131
I491
sS'escaping'
p2132
I2864
sS'fugue'
p2133
I2954
sS'loose'
p2134
I1501
sS'misread'
p2135
I2955
sS'manicured'
p2136
I2956
sS'hours'
p2137
I247
sS'tracks'
p2138
I2135
sS'trunk'
p2139
I492
sS'strong'
p2140
I809
sS'tragedy'
p2141
I2958
sS'fantasies'
p2142
I2959
sS'search'
p2143
I2960
sS'colored'
p2144
I2961
sS'ahead'
p2145
I658
sS'brooke'
p2146
I2962
sS'stretching'
p2147
I2963
sS'experience'
p2148
I1502
sS'soldier'
p2149
I2965
sS'pitfalls'
p2150
I3112
sS'horrified'
p2151
I2966
sS'pick'
p2152
I1049
sS'sunburned'
p2153
I2968
sS'exited'
p2154
I2203
sS'struggle'
p2155
I2005
sS'via'
p2156
I2970
sS'followed'
p2157
I565
sS'family'
p2158
I621
sS'permeate'
p2159
I3884
sS'suddenly'
p2160
I152
sS'layer'
p2161
I3885
sS'put'
p2162
I403
sS'captor'
p2163
I2974
sS'trained'
p2164
I2975
sS'pulls'
p2165
I2976
sS'armed'
p2166
I1504
sS'literary'
p2167
I3498
sS'eye'
p2168
I493
sS'takes'
p2169
I2978
sS'distinct'
p2170
I2979
sS'wiped'
p2171
I2980
sS'faint'
p2172
I1505
sS'two'
p2173
I106
sS'anger'
p2174
I2981
sS'taken'
p2175
I708
sS'fret'
p2176
I2007
sS'minor'
p2177
I2983
sS'more'
p2178
I129
sS'teen'
p2179
I2984
sS'flat'
p2180
I1507
sS'diamond'
p2181
I2985
sS'door'
p2182
I130
sS'knows'
p2183
I1508
sS'coating'
p2184
I2986
sS'company'
p2185
I1509
sS'dribbled'
p2186
I3118
sS'telephone'
p2187
I2987
sS'flag'
p2188
I2988
sS'moistened'
p2189
I2989
sS'broke'
p2190
I1511
sS'particular'
p2191
I2990
sS'known'
p2192
I810
sS'gold'
p2193
I3495
sS'sleeping'
p2194
I1448
sS'glad'
p2195
I1046
sS'presumed'
p2196
I2992
sS'town'
p2197
I1047
sS'grill'
p2198
I2993
sS'none'
p2199
I2994
sS'hour'
p2200
I659
sS'peristalsis'
p2201
I3551
sS'created'
p2202
I2995
sS'installing'
p2203
I2996
sS'remain'
p2204
I2997
sS'sudden'
p2205
I1512
sS'nine'
p2206
I1048
sS'learn'
p2207
I2998
sS'knocked'
p2208
I2397
sS'absently'
p2209
I3000
sS'lingered'
p2210
I1514
sS'beautiful'
p2211
I1050
sS'purchases'
p2212
I3001
sS'hours;'
p2213
I3002
sS'ritual'
p2214
I3003
sS'pushes'
p2215
I3004
sS'cowl'
p2216
I759
sS'salesmen'
p2217
I3006
sS'joints'
p2218
I3007
sS'share'
p2219
I3008
sS'accept'
p2220
I3009
sS'sunscreen'
p2221
I3010
sS'pushed'
p2222
I442
sS'protects'
p2223
I3011
sS'numbers'
p2224
I2459
sS'sense'
p2225
I660
sS'sharp'
p2226
I968
sS'disliked'
p2227
I1366
sS'also;'
p2228
I2769
sS'firmly'
p2229
I3015
sS'!'
p2230
I112
sS'drained'
p2231
I1051
sS'desperation'
p2232
I1665
sS'rather'
p2233
I443
sS'plans'
p2234
I3017
sS'hugo'
p2235
I339
sS'thumbs'
p2236
I1516
sS'stayed'
p2237
I3018
sS'cleansing'
p2238
I1517
sS'<PAD>'
p2239
I0
sS'extinguished'
p2240
I3019
sS'browns'
p2241
I3020
sS'unearthly'
p2242
I3021
sS'heel'
p2243
I3952
sS'guttural'
p2244
I1518
sS'creature'
p2245
I404
sS'tinfoil'
p2246
I3022
sS'rungs'
p2247
I787
sS'sandwich'
p2248
I1053
sS'tried'
p2249
I391
sS'catalog'
p2250
I3025
sS'tries'
p2251
I2087
sS'absentmindedly'
p2252
I1398
sS'lighting'
p2253
I3027
sS'blood'
p2254
I153
sS'numb'
p2255
I3028
sS'coming'
p2256
I566
sS'gasp'
p2257
I1402
sS'appealed'
p2258
I3030
sS'gine'
p2259
I3510
sS'response'
p2260
I1519
sS'malevolent'
p2261
I3032
sS'a'
p2262
I10
sS'dissolving'
p2263
I3033
sS'short'
p2264
I567
sS'morphing'
p2265
I3034
sS'resemble'
p2266
I2578
sS'loud'
p2267
I718
sS'shady'
p2268
I3036
sS'register'
p2269
I811
sS'crippling'
p2270
I3037
sS'perhaps'
p2271
I347
sS'shore'
p2272
I3038
sS'dread'
p2273
I1054
sS'shade'
p2274
I3040
sS'threatens'
p2275
I3041
sS'pleasure'
p2276
I1520
sS'dream'
p2277
I812
sS'playing'
p2278
I3042
sS'replied'
p2279
I813
sS'hypnotising'
p2280
I3043
sS'infant'
p2281
I3044
sS'mexican'
p2282
I3045
sS'help'
p2283
I318
sS'reservoir'
p2284
I3046
sS'stains'
p2285
I3047
sS'developed'
p2286
I3048
sS'flowers'
p2287
I661
sS'soon'
p2288
I444
sS'limply'
p2289
I3049
sS'held'
p2290
I362
sS'thermal'
p2291
I3051
sS'paper'
p2292
I814
sS'through'
p2293
I103
sS'signs'
p2294
I815
sS'hell'
p2295
I816
sS'concentric'
p2296
I2659
sS'suffer'
p2297
I3053
sS'acqui'
p2298
I2839
sS'its'
p2299
I74
sS'24'
p2300
I3054
sS'messed'
p2301
I3055
sS'style'
p2302
I2667
sS'rapidly'
p2303
I1522
sS'forwards'
p2304
I3128
sS'teenagers'
p2305
I3731
sS'inward'
p2306
I3058
sS'actually'
p2307
I1055
sS'late'
p2308
I568
sS'detected'
p2309
I3059
sS'parts'
p2310
I496
sS'sailers'
p2311
I3078
sS'intensified;'
p2312
I3060
sS'mounted'
p2313
I2991
sS'might'
p2314
I319
sS'grille'
p2315
I2763
sS'wouldn'
p2316
I497
sS'hurting'
p2317
I3062
sS'evening'
p2318
I523
sS'return'
p2319
I817
sS'sucking'
p2320
I3063
sS'food'
p2321
I662
sS'dull'
p2322
I2633
sS'noticing'
p2323
I3065
sS'slight'
p2324
I1648
sS'number'
p2325
I1489
sS'walls'
p2326
I1057
sS'grubby'
p2327
I3067
sS'vomit'
p2328
I818
sS'it;'
p2329
I1523
sS'foot'
p2330
I819
sS'sighed'
p2331
I1532
sS'reminder'
p2332
I2562
sS'bigger'
p2333
I1524
sS'sucked'
p2334
I3070
sS'prayed'
p2335
I2680
sS'easily'
p2336
I1688
sS'gets'
p2337
I1763
sS'rots'
p2338
I3387
sS'liquefied'
p2339
I3071
sS'always'
p2340
I203
sS'spinning'
p2341
I3072
sS'stink'
p2342
I3073
sS'courses'
p2343
I2482
sS'someone'
p2344
I363
sS'murmured'
p2345
I3134
sS'stopped'
p2346
I291
sS'turns'
p2347
I3076
sS'found'
p2348
I267
sS'fairy'
p2349
I3077
sS'marry'
p2350
I2430
sS'inside:'
p2351
I3079
sS'heavy'
p2352
I1058
sS'status'
p2353
I2729
sS'everyone'
p2354
I663
sS'begged'
p2355
I3080
sS'mental'
p2356
I1697
sS'weight'
p2357
I664
sS'noble'
p2358
I3082
sS'unravelling'
p2359
I3083
sS'house'
p2360
I287
sS'fish'
p2361
I560
sS'hard'
p2362
I268
sS'scarves'
p2363
I3085
sS'idea'
p2364
I820
sS'expect'
p2365
I3086
sS'fist'
p2366
I3087
sS'murders'
p2367
I1870
sS'event'
p2368
I1029
sS'really'
p2369
I173
sS'anxious'
p2370
I3090
sS'flower'
p2371
I3091
sS'missed'
p2372
I3092
sS'withdraws'
p2373
I3093
sS'nakedness'
p2374
I3094
sS'visions'
p2375
I3137
sS'childish'
p2376
I3095
sS'since'
p2377
I364
sS'mattered'
p2378
I3096
sS'imploring'
p2379
I3097
sS'studying'
p2380
I3738
sS'acting'
p2381
I3098
sS'safety'
p2382
I3099
sS'hill'
p2383
I3100
sS'print'
p2384
I1059
sS'flame'
p2385
I3102
sS'issue'
p2386
I3103
sS'fled'
p2387
I3104
sS'nervously'
p2388
I1164
sS'bass'
p2389
I1343
sS'blaring'
p2390
I1526
sS'dirt'
p2391
I1061
sS'squished'
p2392
I3107
sS'friday'
p2393
I3110
sS'story'
p2394
I821
sS'advant'
p2395
I3111
sS'houses'
p2396
I1527
sS'reason'
p2397
I1528
sS'base'
p2398
I564
sS'imagine'
p2399
I666
sS'ask'
p2400
I667
sS'horse'
p2401
I3113
sS'rises'
p2402
I3114
sS'beginning'
p2403
I3115
sS'loads'
p2404
I3116
sS'pur'
p2405
I3117
sS'temperature'
p2406
I3139
sS'thrown'
p2407
I1529
sS'pairs'
p2408
I1510
sS'agitated'
p2409
I3119
sS'thread'
p2410
I3120
sS'launch'
p2411
I3121
sS'needing'
p2412
I1530
sS'terrible'
p2413
I3122
sS'black;'
p2414
I3123
sS'scuffing'
p2415
I3992
sS'terribly'
p2416
I2198
sS'edges'
p2417
I790
sS'expecting'
p2418
I1063
sS'twenty'
p2419
I1538
sS'comforts'
p2420
I3523
sS'fallen'
p2421
I1531
sS'feed'
p2422
I3126
sS'seeming'
p2423
I3127
sS'stabs'
p2424
I3057
sS'feel'
p2425
I160
sS'4:30'
p2426
I3129
sS'knocking'
p2427
I1533
sS'reflected'
p2428
I1188
sS'twisted'
p2429
I3131
sS'feet'
p2430
I223
sS'sympathy'
p2431
I2309
sS'talked'
p2432
I2375
sS'done'
p2433
I822
sS'hangs'
p2434
I1534
sS'ethereal'
p2435
I3135
sS'changing'
p2436
I2735
sS'scoping'
p2437
I3136
sS'mist'
p2438
I1536
sS'miss'
p2439
I1525
sS'riding'
p2440
I3786
sS'razor'
p2441
I3138
sS'guess'
p2442
I823
sS'"'
p2443
I7
sS'heads'
p2444
I1537
sS'stymie'
p2445
I3016
sS'flock'
p2446
I2872
sS'leading'
p2447
I1064
sS'insignificant'
p2448
I3140
sS'threatening'
p2449
I3141
sS'least'
p2450
I340
sS'intense'
p2451
I3414
sS'paint'
p2452
I3142
sS'wonderful'
p2453
I1065
sS'passed'
p2454
I668
sS'trails'
p2455
I2378
sS'revel'
p2456
I3144
sS'fought'
p2457
I2281
sS'syllables'
p2458
I3145
sS'hundred'
p2459
I669
sS'quickens'
p2460
I3146
sS'store'
p2461
I341
sS'headache'
p2462
I3147
sS'shifted'
p2463
I3148
sS"'but"
p2464
I3433
sS'bowed'
p2465
I1539
sS'muscles'
p2466
I3150
sS'pains'
p2467
I3151
sS'behind'
p2468
I192
sS'relieved'
p2469
I1540
sS'exploded'
p2470
I3152
sS'needle'
p2471
I1541
sS'park'
p2472
I3153
sS'antsy'
p2473
I3802
sS'luckily'
p2474
I3154
sS'part'
p2475
I569
sS'cheekbones'
p2476
I3155
sS'shifter'
p2477
I3156
sS'rifle'
p2478
I1543
sS'believe'
p2479
I445
sS'convinced'
p2480
I1250
sS'pecting'
p2481
I3158
sS'peaked'
p2482
I3159
sS'kind'
p2483
I292
sS'grew'
p2484
I670
sS'gotten'
p2485
I570
sS'grey'
p2486
I3160
sS'serene'
p2487
I3183
sS'stall'
p2488
I3161
sS'supposed'
p2489
I824
sS'shotgun'
p2490
I3913
sS'dispenser'
p2491
I3162
sS'stale'
p2492
I1066
sS'toward'
p2493
I3163
sS'stickiness'
p2494
I3165
sS'shirts'
p2495
I3166
sS'uncomfortable'
p2496
I3167
sS'strengthen'
p2497
I3168
sS'hacking'
p2498
I3302
sS'alongside'
p2499
I3169
sS'barking'
p2500
I3923
sS'juice'
p2501
I3170
sS'caress'
p2502
I1544
sS'cleaned'
p2503
I1545
sS'creased'
p2504
I3171
sS'snagged'
p2505
I4009
sS'sensual'
p2506
I1587
sS'collapse'
p2507
I1228
sS'sell'
p2508
I1104
sS'mountain'
p2509
I269
sS'hopelessly'
p2510
I1547
sS'built'
p2511
I3174
sS'flared'
p2512
I2567
sS'depending'
p2513
I1548
sS'self'
p2514
I671
sS'cave'
p2515
I1087
sS'officers'
p2516
I1549
sS'nah'
p2517
I3178
sS'lit'
p2518
I3179
sS'flares'
p2519
I1359
sS'without'
p2520
I397
sS'lip'
p2521
I1550
sS'bouncing'
p2522
I3180
sS'finding'
p2523
I826
sS'transparent'
p2524
I3181
sS'sels'
p2525
I3182
sS'play'
p2526
I619
sS'added'
p2527
I571
sS'warnings'
p2528
I3184
sS'eggs'
p2529
I499
sS'reach'
p2530
I500
sS'chart'
p2531
I3185
sS'depths'
p2532
I1551
sS'most'
p2533
I270
sS'hopeless'
p2534
I2011
sS'73'
p2535
I2785
sS'plan'
p2536
I1067
sS"'cause"
p2537
I2572
sS'position'
p2538
I3919
sS'nothing'
p2539
I147
sS'wastes'
p2540
I3189
sS'refrigerator'
p2541
I1068
sS'11:15'
p2542
I2251
sS'constructed'
p2543
I3191
sS'bug'
p2544
I3190
sS'seize'
p2545
I3193
sS'windows'
p2546
I1069
sS'clear'
p2547
I406
sS'sometimes'
p2548
I407
sS'snapping'
p2549
I1542
sS'cramped'
p2550
I1553
sS'clean'
p2551
I672
sS'convulse'
p2552
I2383
sS'flattened'
p2553
I2888
sS'latest'
p2554
I3921
sS'giggles'
p2555
I3194
sS'cruiser'
p2556
I365
sS'wailing'
p2557
I3195
sS'grinning'
p2558
I2943
sS'scattered'
p2559
I1070
sS'stumped'
p2560
I3197
sS'booze'
p2561
I3198
sS'session'
p2562
I3199
sS'crayon'
p2563
I827
sS'contorted'
p2564
I3200
sS'carefully'
p2565
I828
sS'fine'
p2566
I572
sS'find'
p2567
I204
sS'shits'
p2568
I2982
sS'stubble'
p2569
I1556
sS'access'
p2570
I3201
sS'giant'
p2571
I673
sS'dividing'
p2572
I3202
sS"'he"
p2573
I2387
sS'stairs'
p2574
I3157
sS'flesh'
p2575
I674
sS'grotesque'
p2576
I3204
sS'rotten'
p2577
I3205
sS'aren'
p2578
I3206
sS'failed'
p2579
I3207
sS'pretty'
p2580
I829
sS'circle'
p2581
I3209
sS'$1'
p2582
I3210
sS'discuss'
p2583
I2977
sS'his'
p2584
I18
sS'hit'
p2585
I830
sS'distance'
p2586
I320
sS'sights'
p2587
I3212
sS'capital'
p2588
I2973
sS'sunny'
p2589
I3214
sS'assumed'
p2590
I3215
sS'trees'
p2591
I366
sS'speckled'
p2592
I3216
sS'blank'
p2593
I3217
sS'whistle'
p2594
I3218
sS'feels'
p2595
I1558
sS'courage'
p2596
I3219
sS'hid'
p2597
I3220
sS'pretending'
p2598
I1559
sS'reply'
p2599
I957
sS'during'
p2600
I1071
sS'silk'
p2601
I3221
sS'him'
p2602
I30
sS'affront'
p2603
I4050
sS'catches'
p2604
I1072
sS'spikes'
p2605
I1562
sS'noises'
p2606
I1073
sS'cries'
p2607
I3224
sS'pleasures'
p2608
I3225
sS'nibbles'
p2609
I3226
sS'cry'
p2610
I573
sS'remove'
p2611
I3227
sS'perfume'
p2612
I3228
sS'gloves'
p2613
I2563
sS'cease'
p2614
I3230
sS'wrote'
p2615
I3232
sS'scanning'
p2616
I3234
sS'seventeen'
p2617
I3235
sS'set'
p2618
I342
sS'scruffy'
p2619
I3236
sS'dump'
p2620
I3237
sS'throwing'
p2621
I1563
sS'lifetimes'
p2622
I3238
sS'crackle'
p2623
I3239
sS'seventhirty'
p2624
I3240
sS'sex'
p2625
I501
sS'mantra'
p2626
I3241
sS'see'
p2627
I69
sS'bare'
p2628
I1564
sS'are'
p2629
I77
sS'surrendered'
p2630
I3242
sS'tender'
p2631
I3243
sS'close'
p2632
I248
sS'arm'
p2633
I367
sS'locals'
p2634
I3244
sS'feared'
p2635
I3245
sS'knees'
p2636
I502
sS'glistening'
p2637
I1125
sS'horrid'
p2638
I3247
sS'muted'
p2639
I3248
sS'pictures'
p2640
I1126
sS'consuming'
p2641
I3973
sS'please'
p2642
I1566
sS'blurs'
p2643
I1567
sS'degrading'
p2644
I3250
sS'won'
p2645
I1074
sS'various'
p2646
I3251
sS'probably'
p2647
I408
sS'burned'
p2648
I1715
sS'bellies'
p2649
I3253
sS'numerous'
p2650
I1569
sS'monsters'
p2651
I3254
sS'piss'
p2652
I3255
sS'knowing'
p2653
I831
sS'pushing'
p2654
I1657
sS'recently'
p2655
I1571
sS'perusal'
p2656
I3468
sS'spun'
p2657
I1738
sS'intimidated'
p2658
I3256
sS'sold'
p2659
I832
sS'attention'
p2660
I1075
sS'spray'
p2661
I833
sS'blot'
p2662
I3257
sS'betrayed'
p2663
I3258
sS'remaining'
p2664
I3259
sS'abruptly'
p2665
I3186
sS'both'
p2666
I343
sS'evaporated'
p2667
I3261
sS'last'
p2668
I224
sS'reverse'
p2669
I3262
sS'license'
p2670
I1076
sS'tipping'
p2671
I1423
sS'barely'
p2672
I3264
sS'baking'
p2673
I3024
sS'sensitive'
p2674
I3266
sS'connection'
p2675
I1572
sS'became'
p2676
I1077
sS'wrappers'
p2677
I3267
sS'ing:'
p2678
I3268
sS'buzz'
p2679
I722
sS'focused'
p2680
I1574
sS'bond'
p2681
I1575
sS'whole'
p2682
I447
sS'load'
p2683
I1576
sS'liked'
p2684
I409
sS'onward'
p2685
I3930
sS'distress'
p2686
I3270
sS'point'
p2687
I1078
sS'simple'
p2688
I3271
sS'sweet'
p2689
I410
sS'acted'
p2690
I3272
sS'community'
p2691
I3273
sS'hollow'
p2692
I3274
sS'revving'
p2693
I3275
sS'simply'
p2694
I675
sS'likes'
p2695
I3276
sS'mattress'
p2696
I3277
sS'mission'
p2697
I2643
sS'suspenders'
p2698
I1455
sS'weaving'
p2699
I3976
sS'publishing'
p2700
I3280
sS'pt'
p2701
I321
sS'damp'
p2702
I3281
sS'blink'
p2703
I3857
sS'appears'
p2704
I2837
sS'hitting'
p2705
I1578
sS'rattle'
p2706
I1579
sS'secret'
p2707
I503
sS'dropping'
p2708
I2240
sS'damn'
p2709
I1580
sS'blueness'
p2710
I3284
sS'maintenance'
p2711
I3285
sS'9:30'
p2712
I2846
sS'meeting'
p2713
I3287
sS'po'
p2714
I3288
sS'empty'
p2715
I1581
sS'spirals'
p2716
I3289
sS'firm'
p2717
I3013
sS'resting'
p2718
I835
sS'lived'
p2719
I676
sS'raced'
p2720
I1079
sS'sending'
p2721
I2601
sS'fire'
p2722
I1080
sS'infect'
p2723
I3292
sS'gas'
p2724
I1582
sS'fluids'
p2725
I3491
sS'else'
p2726
I411
sS'vaguely'
p2727
I3293
sS'races'
p2728
I3294
sS'understand'
p2729
I677
sS'specifically'
p2730
I2630
sS'station'
p2731
I3014
sS'prices'
p2732
I3295
sS'wheeled'
p2733
I1817
sS'hardness'
p2734
I3297
sS'plants'
p2735
I1081
sS'presses'
p2736
I1827
sS'stolen'
p2737
I3299
sS'fur'
p2738
I3300
sS'look'
p2739
I104
sS'slyly'
p2740
I1834
sS'raw'
p2741
I1082
sS'solid'
p2742
I1083
sS'straight'
p2743
I1084
sS'bill'
p2744
I965
sS'batch'
p2745
I1702
sS'fug'
p2746
I2159
sS'while'
p2747
I271
sS'pressed'
p2748
I1585
sS'fun'
p2749
I504
sS'ful'
p2750
I3303
sS'guide'
p2751
I678
sS'pack'
p2752
I3304
sS'gracious'
p2753
I3305
sS'grip'
p2754
I1459
sS'pound'
p2755
I1884
sS'hoping'
p2756
I3306
sS'desk;'
p2757
I3307
sS'violently'
p2758
I679
sS'awaits'
p2759
I3817
sS'gunned'
p2760
I3743
sS'itself'
p2761
I505
sS'frantic'
p2762
I3310
sS'beautifully'
p2763
I3223
sS'ready'
p2764
I1586
sS'busch'
p2765
I1918
sS'vanish'
p2766
I3313
sS'anguish'
p2767
I3314
sS'hellos'
p2768
I3315
sS'frown'
p2769
I3316
sS'chauffeur'
p2770
I3317
sS'funny'
p2771
I3318
sS'shirt'
p2772
I574
sS'anymore'
p2773
I1196
sS'disappearance'
p2774
I3935
sS'problems'
p2775
I3321
sS'fountain'
p2776
I3322
sS'delicious'
p2777
I3323
sS'vulnerable'
p2778
I3172
sS'descended'
p2779
I3324
sS'heightening'
p2780
I3173
sS'daughters'
p2781
I3326
sS'higher'
p2782
I1588
sS'lid'
p2783
I1546
sS'maneuv'
p2784
I3327
sS'used'
p2785
I329
sS'scarcely'
p2786
I3912
sS'lie'
p2787
I3328
sS'flooded'
p2788
I3329
sS'cigar'
p2789
I3330
sS'stacy'
p2790
I232
sS'moment'
p2791
I193
sS'leapt'
p2792
I3331
sS'arrived'
p2793
I1086
sS'flitting'
p2794
I3332
sS'priceless'
p2795
I3333
sS'bob'
p2796
I1592
sS'recent'
p2797
I1593
sS'dark'
p2798
I400
sS'lower'
p2799
I1594
sS'ironically'
p2800
I2606
sS'escapades'
p2801
I3175
sS'spent'
p2802
I736
sS'county'
p2803
I724
sS'obviously'
p2804
I3338
sS'concrete'
p2805
I2053
sS'priced'
p2806
I4042
sS'edge'
p2807
I448
sS'withdraw'
p2808
I2060
sS'magnifies'
p2809
I3342
sS'bounced'
p2810
I3343
sS'flowing'
p2811
I3213
sS'spend'
p2812
I611
sS'howl'
p2813
I3346
sS'people;'
p2814
I3347
sS'distances'
p2815
I3348
sS'watching'
p2816
I3349
sS'empowered'
p2817
I3176
sS'powering'
p2818
I2080
sS'aroma'
p2819
I1595
sS'distracting'
p2820
I3351
sS'shape'
p2821
I2099
sS'cocky'
p2822
I3353
sS'world'
p2823
I506
sS'regardless'
p2824
I3354
sS'crackles'
p2825
I3355
sS'expelled'
p2826
I2936
sS'lukewarm'
p2827
I4045
sS'crested'
p2828
I3357
sS'coun'
p2829
I3358
sS'letting'
p2830
I2021
sS'cut'
p2831
I534
sS'landscapes'
p2832
I3452
sS'humour'
p2833
I3362
sS'also'
p2834
I405
sS'hated'
p2835
I1596
sS'workers'
p2836
I1565
sS'danger'
p2837
I1597
sS'kissed'
p2838
I2337
sS'throats'
p2839
I3365
sS'source'
p2840
I3366
sS'lifts'
p2841
I3367
sS'parents'
p2842
I838
sS'rear'
p2843
I2776
sS'crying'
p2844
I507
sS'born'
p2845
I2236
sS'excited'
p2846
I1598
sS'surprised'
p2847
I575
sS'customers'
p2848
I1619
sS'confession'
p2849
I1663
sS'radiator'
p2850
I3370
sS'audibly'
p2851
I3371
sS'big'
p2852
I272
sS'couple'
p2853
I1280
sS'clutched'
p2854
I3373
sS'logical'
p2855
I3374
sS'necessary'
p2856
I3945
sS'bit'
p2857
I1600
sS'sharpened'
p2858
I3375
sS'wings'
p2859
I3376
sS'translucent'
p2860
I3377
sS'outright'
p2861
I3379
sS'inviting'
p2862
I3946
sS'follows'
p2863
I1601
sS'glove'
p2864
I1602
sS'ignore'
p2865
I683
sS'bulge'
p2866
I3947
sS'continue'
p2867
I3382
sS'wrecked'
p2868
I3383
sS'jolted'
p2869
I3384
sS'softness'
p2870
I3385
sS'foolish'
p2871
I1603
sS'walrus'
p2872
I2258
sS'healthy'
p2873
I2403
sS'privately'
p2874
I3559
sS'pallid'
p2875
I2558
sS'eldritch'
p2876
I3388
sS'often'
p2877
I684
sS'flurry'
p2878
I3389
sS'fucking'
p2879
I1089
sS'spring'
p2880
I3390
sS'fake'
p2881
I3391
sS'some'
p2882
I63
sS'back'
p2883
I44
sS'bounce'
p2884
I3392
sS'understood'
p2885
I945
sS'lips'
p2886
I576
sS'towards'
p2887
I273
sS'palm'
p2888
I3394
sS'sight'
p2889
I426
sS'mirror'
p2890
I577
sS'pale'
p2891
I1090
sS'hmmmm'
p2892
I3396
sS'discarded'
p2893
I3397
sS'gradually'
p2894
I1091
sS'acquaintance'
p2895
I3398
sS'jewelry'
p2896
I3399
sS'envied'
p2897
I2554
sS'claw'
p2898
I3411
sS'vocalizations'
p2899
I3400
sS'per'
p2900
I3401
sS'cupped'
p2901
I1605
sS'pen'
p2902
I3402
sS'manipulate'
p2903
I3563
sS'welling'
p2904
I3403
sS'ornate'
p2905
I3404
sS'temple'
p2906
I1606
sS'either'
p2907
I412
sS'be'
p2908
I47
sS'claimed'
p2909
I3893
sS'eating'
p2910
I629
sS'remembered'
p2911
I694
sS'bartender'
p2912
I3405
sS'lose'
p2913
I3951
sS'baited'
p2914
I3406
sS'agreement'
p2915
I3407
sS'step'
p2916
I1608
sS'chanting'
p2917
I3408
sS'nowhere'
p2918
I3409
sS'consolation'
p2919
I3410
sS'served'
p2920
I2784
sS'ache'
p2921
I3412
sS'obscured'
p2922
I1609
sS'ochre'
p2923
I3413
sS'by'
p2924
I116
sS'cautious'
p2925
I3415
sS'bristling'
p2926
I1093
sS'anything'
p2927
I322
sS'wore'
p2928
I1904
sS'reappear'
p2929
I3417
sS'conversation'
p2930
I3418
sS'firing'
p2931
I3419
sS'wrinkles'
p2932
I1611
sS'bestseller'
p2933
I3420
sS'forgave'
p2934
I3421
sS'mumble'
p2935
I3278
sS'experiences'
p2936
I3187
sS'shiny'
p2937
I3423
sS'daisies'
p2938
I1612
sS'silence'
p2939
I685
sS'seeing'
p2940
I449
sS'thighs'
p2941
I1368
sS'letter'
p2942
I1613
sS'snatches'
p2943
I3424
sS'into'
p2944
I46
sS'within'
p2945
I1094
sS'invading'
p2946
I3425
sS'selected'
p2947
I1855
sS'vagabond'
p2948
I3426
sS'sized'
p2949
I3949
sS'lesson'
p2950
I3427
sS'smells'
p2951
I840
sS'stench'
p2952
I1615
sS'caressed'
p2953
I841
sS'rows'
p2954
I2545
sS'sad'
p2955
I2594
sS'harnessed'
p2956
I3429
sS'spam'
p2957
I3430
sS'placing'
p2958
I3431
sS'question'
p2959
I508
sS'vigour'
p2960
I3432
sS'fast'
p2961
I987
sS'creaked'
p2962
I1616
sS'forward'
p2963
I413
sS'rhetorical'
p2964
I3434
sS'spat'
p2965
I3436
sS'considerably'
p2966
I3437
sS'himself'
p2967
I344
sS'perplexing'
p2968
I3438
sS'inches'
p2969
I3439
sS'filet'
p2970
I3440
sS'collapsed'
p2971
I1095
sS'frost'
p2972
I1096
sS'slump'
p2973
I3441
sS'birthmark'
p2974
I3233
sS'boys'
p2975
I274
sS'larry'
p2976
I450
sS'tragically'
p2977
I3443
sS'line'
p2978
I842
sS'reek'
p2979
I3444
sS'reel'
p2980
I1618
sS'schunemunk'
p2981
I2088
sS'posted'
p2982
I2280
sS'fades'
p2983
I3446
sS'tempered'
p2984
I3447
sS'travelling'
p2985
I3061
sS'viciously'
p2986
I3192
sS'skull'
p2987
I686
sS'stumbling'
p2988
I3448
sS'up'
p2989
I41
sS'us'
p2990
I275
sS'um'
p2991
I3449
sS'un'
p2992
I999
sS'cautiously'
p2993
I2663
sS'uh'
p2994
I1620
sS'faded'
p2995
I1621
sS'fried'
p2996
I3451
sS'similar'
p2997
I1964
sS'called'
p2998
I250
sS'yelled'
p2999
I843
sS'bell'
p3000
I1098
sS'partition'
p3001
I3454
sS'hash'
p3002
I2953
sS'steeled'
p3003
I3456
sS'expedition'
p3004
I1622
sS'cover'
p3005
I1552
sS'listening'
p3006
I3457
sS'doesn'
p3007
I368
sS'single'
p3008
I1099
sS'warning'
p3009
I3458
sS'johnsons'
p3010
I3459
sS'curl'
p3011
I1624
sS'dragging'
p3012
I1451
sS'hissing'
p3013
I1777
sS'lemon'
p3014
I3462
sS'retrace'
p3015
I3463
sS'tara'
p3016
I135
sS'peace'
p3017
I1101
sS'scares'
p3018
I3960
sS'occasional'
p3019
I3464
sS'application'
p3020
I3465
sS'awoke'
p3021
I3081
sS'receiver'
p3022
I3717
sS'grind'
p3023
I3466
sS'ferent'
p3024
I1626
sS'scurrying'
p3025
I3467
sS'tart'
p3026
I1021
sS'brushing'
p3027
I1628
sS'shrug'
p3028
I1926
sS'draw'
p3029
I844
sS'energetic'
p3030
I3469
sS'beginnings'
p3031
I3470
sS'crouching'
p3032
I3471
sS'faintly'
p3033
I1102
sS'prepared'
p3034
I1629
sS'helping'
p3035
I1103
sS'rise'
p3036
I1928
sS'smiled'
p3037
I293
sS'fisher'
p3038
I1630
sS'missile'
p3039
I3572
sS'desert'
p3040
I1028
sS'rightful'
p3041
I3474
sS'ago'
p3042
I509
sS'neglectful'
p3043
I2832
sS'land'
p3044
I1631
sS'e'
p3045
I3476
sS'fluorescence'
p3046
I3477
sS'practically'
p3047
I3478
sS'age'
p3048
I687
sS'required'
p3049
I3479
sS'holes'
p3050
I1632
sS'walked'
p3051
I194
sS'notion'
p3052
I3480
sS'depth'
p3053
I1633
sS'weights'
p3054
I3481
sS'urgency'
p3055
I3336
sS'literally'
p3056
I3963
sS'fresh'
p3057
I580
sS'menace'
p3058
I3483
sS'hello'
p3059
I1251
sS'once'
p3060
I294
sS'tattooing'
p3061
I3484
sS'gt'
p3062
I3485
sS'dawning'
p3063
I3486
sS'wingtips'
p3064
I3487
sS'jittering'
p3065
I3488
sS'melts'
p3066
I3489
sS'scratch'
p3067
I1635
sS'gobbled'
p3068
I1831
sS'slick'
p3069
I2795
sS'alien'
p3070
I845
sS'pulsing'
p3071
I2926
sS'groceries'
p3072
I1637
sS'jiggle'
p3073
I2796
sS'go'
p3074
I182
sS'shrugged'
p3075
I1638
sS'issues'
p3076
I3494
sS'seemed'
p3077
I119
sS'penis'
p3078
I3574
sS'stunned'
p3079
I2661
sS'shouldn'
p3080
I2957
sS'concerned'
p3081
I3496
sS'peering'
p3082
I1639
sS'stave'
p3083
I3497
sS'young'
p3084
I846
sS'send'
p3085
I1640
sS'nose'
p3086
I1105
sS'slips'
p3087
I3290
sS'teardrop'
p3088
I3499
sS'contours'
p3089
I2264
sS'frisbees'
p3090
I3501
sS'quarterly'
p3091
I3502
sS'gravel'
p3092
I3503
sS'friendly'
p3093
I1641
sS'indicating'
p3094
I3504
sS'stocked'
p3095
I3505
sS'breathing'
p3096
I848
sS'garden'
p3097
I414
sS'roiling'
p3098
I3506
sS'dessert'
p3099
I3507
sS'reopened'
p3100
I3508
sS'moun'
p3101
I3509
sS'wave'
p3102
I3031
sS'forgiven'
p3103
I3969
sS'putting'
p3104
I3512
sS'traced'
p3105
I3653
sS'telling'
p3106
I1106
sS'drinking'
p3107
I1642
sS'ending'
p3108
I3513
sS'continued'
p3109
I451
sS'entire'
p3110
I3514
sS'incoherent'
p3111
I3515
sS'stiff'
p3112
I3516
sS'transmission'
p3113
I3074
sS'positions'
p3114
I3517
sS'joel'
p3115
I689
sS'having'
p3116
I688
sS'flickered'
p3117
I3518
sS'try'
p3118
I323
sS'blurry'
p3119
I3819
sS'dealt'
p3120
I3520
sS'settlers'
p3121
I3521
sS'challenge'
p3122
I3522
sS'anticipative'
p3123
I3125
sS'pleas'
p3124
I1645
sS'smaller'
p3125
I582
sS'gripping'
p3126
I3524
sS'curtly'
p3127
I3525
sS'crow'
p3128
I3526
sS'seventies'
p3129
I3527
sS'sensation'
p3130
I1107
sS'boots'
p3131
I3528
sS'licensed'
p3132
I2464
sS'jump'
p3133
I3530
sS'booth'
p3134
I1108
sS'picked'
p3135
I849
sS'exuberant'
p3136
I1646
sS'growing'
p3137
I2456
sS'manipulating'
p3138
I3531
sS'grooves'
p3139
I3532
sS'acid'
p3140
I1647
sS'depression'
p3141
I3533
sS'victor'
p3142
I120
sS'graduating'
p3143
I3534
sS'south'
p3144
I3535
sS'sausage'
p3145
I3536
sS'power'
p3146
I850
sS'squeeze'
p3147
I3777
sS'reaching'
p3148
I649
sS'moan'
p3149
I3537
sS'cell'
p3150
I1649
sS'paying'
p3151
I3320
sS'waiting'
p3152
I369
sS'applesauce'
p3153
I3208
sS'unmercifully'
p3154
I3540
sS'pleading'
p3155
I1650
sS't'
p3156
I1651
sS'rotted'
p3157
I3541
sS'irreparable'
p3158
I3581
sS'bird'
p3159
I1653
sS'body'
p3160
I251
sS'impact'
p3161
I1654
sS'led'
p3162
I851
sS'chose'
p3163
I3542
sS'leg'
p3164
I1655
sS'ments'
p3165
I2894
sS'gathered'
p3166
I1656
sS'kidnapper'
p3167
I1570
sS'wraps'
p3168
I3543
sS'believed'
p3169
I1658
sS'explore'
p3170
I3265
sS'unthinking'
p3171
I3545
sS'let'
p3172
I205
sS'sink'
p3173
I1659
sS'others'
p3174
I852
sS'squirming'
p3175
I3546
sS'joins'
p3176
I2898
sS'settling'
p3177
I3547
sS'great'
p3178
I370
sS'bites'
p3179
I1710
sS'larger'
p3180
I1085
sS'shades'
p3181
I3549
sS'leaving'
p3182
I1755
sS'fond'
p3183
I2946
sS'evading'
p3184
I3552
sS'nervous'
p3185
I3203
sS'buttresses'
p3186
I3553
sS'climb'
p3187
I853
sS'makes'
p3188
I1660
sS'examining'
p3189
I3554
sS'named'
p3190
I1661
sS'apple'
p3191
I324
sS'scales'
p3192
I1097
sS'limp'
p3193
I1662
sS'manage'
p3194
I682
sS'mice'
p3195
I2850
sS'private'
p3196
I3177
sS'scaled'
p3197
I3556
sS'snapped'
p3198
I3975
sS'stupider'
p3199
I3558
sS'names'
p3200
I1604
sS'motor'
p3201
I3560
sS'bindings'
p3202
I3561
sS'sugar'
p3203
I3562
sS'cloud'
p3204
I1092
sS'announced'
p3205
I3564
sS'standing'
p3206
I371
sS'use'
p3207
I510
sS'fee'
p3208
I1664
sS'from'
p3209
I39
sS'stream'
p3210
I2463
sS'inspiration'
p3211
I3997
sS'remains'
p3212
I1109
sS'$300'
p3213
I3565
sS'fitfully'
p3214
I3566
sS'next'
p3215
I295
sS'few'
p3216
I136
sS'doubt'
p3217
I1666
sS'crab'
p3218
I3567
sS'vehicle'
p3219
I1667
sS'themselves'
p3220
I1669
sS'oily'
p3221
I1670
sS'cheeks'
p3222
I748
sS'sort'
p3223
I3568
sS'popped'
p3224
I1110
sS'cackle'
p3225
I3569
sS'giggle'
p3226
I3570
sS'started'
p3227
I137
sS'becomes'
p3228
I854
sS'about'
p3229
I60
sS'infection'
p3230
I3571
sS'fuck'
p3231
I2465
sS'trail'
p3232
I1671
sS'carrying'
p3233
I3573
sS'sharply'
p3234
I1672
sS'tattered'
p3235
I1673
sS'baby'
p3236
I1636
sS'tearing'
p3237
I1674
sS'women'
p3238
I1112
sS'customer'
p3239
I3575
sS'couraged'
p3240
I3576
sS'account'
p3241
I1675
sS'balls'
p3242
I3577
sS'announcing'
p3243
I3578
sS'this'
p3244
I49
sS'ride'
p3245
I1676
sS'frothed'
p3246
I2610
sS'gruff'
p3247
I3579
sS'anywhere'
p3248
I3539
sS'obvious'
p3249
I1652
sS'thin'
p3250
I1677
sS'gunshots'
p3251
I3582
sS'meet'
p3252
I1678
sS'closing'
p3253
I692
sS'drops'
p3254
I3583
sS'dissolve'
p3255
I3550
sS'proof'
p3256
I3585
sS'control'
p3257
I1113
sS'pocked'
p3258
I3586
sS'slid'
p3259
I1114
sS'bent'
p3260
I1679
sS'patron'
p3261
I3587
sS'monolithlike'
p3262
I3588
sS'discussed'
p3263
I2812
sS'dripping'
p3264
I1680
sS'transpired'
p3265
I3591
sS'pieces'
p3266
I3592
sS'high'
p3267
I452
sS'pulling'
p3268
I1681
sS'something'
p3269
I109
sS'slip'
p3270
I1682
sS'bones'
p3271
I855
sS'stories'
p3272
I4011
sS'standard'
p3273
I2004
sS'darkening'
p3274
I3593
sS'rape'
p3275
I3594
sS'sir'
p3276
I1684
sS'rumble'
p3277
I3595
sS'kane'
p3278
I1685
sS'shuffled'
p3279
I3596
sS'sit'
p3280
I856
sS'paled'
p3281
I3597
sS'six'
p3282
I693
sS'swear'
p3283
I3599
sS'forest'
p3284
I3600
sS'animal'
p3285
I1686
sS'hormones'
p3286
I3601
sS'slamming'
p3287
I3602
sS'instead'
p3288
I584
sS'struggled'
p3289
I3461
sS'weakened'
p3290
I3604
sS'panic'
p3291
I1687
sS'sweat'
p3292
I875
sS'watery'
p3293
I3605
sS'cobwebs'
p3294
I3606
sS'stammered'
p3295
I3453
sS'neighbor'
p3296
I3608
sS'farm'
p3297
I1708
sS'watch'
p3298
I225
sS'wristwatch'
p3299
I3609
sS'tied'
p3300
I1689
sS'glint'
p3301
I3610
sS'throbs'
p3302
I3611
sS'notebook'
p3303
I3612
sS'preferring'
p3304
I3613
sS'whistles'
p3305
I3982
sS'fits'
p3306
I3614
sS'tomb'
p3307
I3615
sS'tomato'
p3308
I1690
sS'realized'
p3309
I1691
sS'drop'
p3310
I711
sS'light'
p3311
I345
sS'counter'
p3312
I372
sS'lines'
p3313
I1692
sS'interrupted'
p3314
I1683
sS'gesturing'
p3315
I3360
sS'gone;'
p3316
I3618
sS'blocking'
p3317
I3620
sS'crawling'
p3318
I3621
sS'smiles'
p3319
I3622
sS'jeez'
p3320
I3623
sS'lined'
p3321
I3624
sS'respectable'
p3322
I3625
sS'bathing'
p3323
I3626
sS'rusted'
p3324
I3627
sS'closely'
p3325
I1694
sS'padded'
p3326
I3628
sS'poking'
p3327
I2469
sS'minnow'
p3328
I3629
sS'move'
p3329
I702
sS'produced'
p3330
I3631
sS'hugged'
p3331
I3632
sS'rendered'
p3332
I2446
sS'looks'
p3333
I415
sS'horns'
p3334
I3634
sS'paperbacks'
p3335
I3635
sS'polished'
p3336
I3984
sS'spasmodic'
p3337
I3637
sS'curling'
p3338
I3638
sS'perfect'
p3339
I1696
sS'amputated'
p3340
I2471
sS'chosen'
p3341
I3639
sS'labor'
p3342
I3640
sS'emotionless'
p3343
I3641
sS'degrees'
p3344
I3642
sS'choose'
p3345
I1117
sS'orange'
p3346
I3643
sS'covered'
p3347
I1698
sS'crowds'
p3348
I3644
sS'dad'
p3349
I100
sS'ruined'
p3350
I2658
sS'crash'
p3351
I1699
sS'greater'
p3352
I3645
sS'flew'
p3353
I3646
sS'mention'
p3354
I1700
sS'cutting'
p3355
I3647
sS'kiss'
p3356
I1701
sS'hands'
p3357
I124
sS'front'
p3358
I121
sS'<emdash>'
p3359
I276
sS'day'
p3360
I166
sS'grinding'
p3361
I3966
sS'worlds'
p3362
I2026
sS'feedbooks'
p3363
I3650
sS'profound'
p3364
I3651
sS'university'
p3365
I3652
sS'eased'
p3366
I1643
sS'feast'
p3367
I3654
sS'mouthed'
p3368
I2290
sS'reloading'
p3369
I3655
sS'slipping'
p3370
I3656
sS'bil'
p3371
I3369
sS'betty'
p3372
I511
sS'truth'
p3373
I695
sS'rite'
p3374
I3798
sS'crossing'
p3375
I3657
sS'accompanied'
p3376
I1781
sS'beneath'
p3377
I512
sS'bills'
p3378
I3658
sS'shaking'
p3379
I696
sS'experienced'
p3380
I3659
sS'upward'
p3381
I3660
sS'ankles'
p3382
I1704
sS'doing'
p3383
I858
sS'adventure'
p3384
I3661
sS'apologize'
p3385
I2826
sS'winked'
p3386
I1705
sS'snaps'
p3387
I3663
sS'books'
p3388
I513
sS'thirteen'
p3389
I1118
sS'measure'
p3390
I3664
sS'jagged'
p3391
I3665
sS'our'
p3392
I586
sS'grilles'
p3393
I3666
sS'sexual'
p3394
I1706
sS'wander'
p3395
I3667
sS'special'
p3396
I3668
sS'out'
p3397
I43
sS"'"
p3398
I514
sS'littered'
p3399
I1707
sS'occupied'
p3400
I3669
sS'eyelids'
p3401
I3670
sS'furiously'
p3402
I3607
sS'wholly'
p3403
I3671
sS'busying'
p3404
I2703
sS'dominated'
p3405
I3672
sS'bunches'
p3406
I1167
sS'unprepared'
p3407
I3674
sS'caramel'
p3408
I3229
sS'cause'
p3409
I1119
sS'marvelled'
p3410
I3677
sS'red'
p3411
I183
sS'shut'
p3412
I587
sS'approached'
p3413
I3340
sS'eighty'
p3414
I3679
sS'withering'
p3415
I3680
sS'projectile'
p3416
I3681
sS'fourteen'
p3417
I3682
sS'completely'
p3418
I515
sS'surely'
p3419
I1709
sS'york'
p3420
I859
sS'keys'
p3421
I3683
sS'doubles'
p3422
I3684
sS'mumbles'
p3423
I3603
sS'bleed'
p3424
I888
sS'quo'
p3425
I3685
sS'backwards'
p3426
I3686
sS'yard'
p3427
I1900
sS'reeled'
p3428
I3309
sS'concerns'
p3429
I3741
sS'route'
p3430
I1121
sS'scars'
p3431
I3689
sS'work;'
p3432
I3283
sS'keep'
p3433
I588
sS'chilly'
p3434
I1711
sS'length'
p3435
I589
sS'birthday'
p3436
I2480
sS'harwinski'
p3437
I2834
sS'cain'
p3438
I82
sS'secretary'
p3439
I3691
sS'waitress'
p3440
I698
sS'rudely'
p3441
I1948
sS'staggered'
p3442
I1952
sS'urgent'
p3443
I3393
sS'itching'
p3444
I2805
sS'scene'
p3445
I1713
sS'reaches'
p3446
I1970
sS'mortgage'
p3447
I3696
sS'embarrassed'
p3448
I2964
sS'owner'
p3449
I3698
sS'reached'
p3450
I346
sS'scent'
p3451
I1714
sS'sisters'
p3452
I3133
sS'vulgar'
p3453
I3699
sS'accent'
p3454
I3700
sS'ripples'
p3455
I3701
sS'eighth'
p3456
I3702
sS'their'
p3457
I101
sS'dissolution'
p3458
I2619
sS'mindless'
p3459
I3704
sS'gobbet'
p3460
I2033
sS'wrapped'
p3461
I1716
sS'rippled'
p3462
I3706
sS'interjected'
p3463
I3707
sS'final'
p3464
I860
sS'boil'
p3465
I3708
sS'beard'
p3466
I699
sS'ironic'
p3467
I2718
sS'shell'
p3468
I3710
sS'stomach'
p3469
I590
sS'gear'
p3470
I1717
sS'shelf'
p3471
I1718
sS'explanation'
p3472
I1719
sS'exactly'
p3473
I516
sS'spatters'
p3474
I3711
sS'hitching'
p3475
I3712
sS'powdered'
p3476
I3996
sS'undernourished'
p3477
I3616
sS'purposes'
p3478
I3714
sS'natural'
p3479
I1186
sS'overwhelming'
p3480
I3716
sS'herself'
p3481
I700
sS'haven'
p3482
I1397
sS'coughed'
p3483
I3718
sS'neck'
p3484
I1122
sS'loved'
p3485
I416
sS'glamorous'
p3486
I1123
sS'johnson'
p3487
I1124
sS'boring'
p3488
I1721
sS'thrashing'
p3489
I3719
sS'beg'
p3490
I1382
sS'bed'
p3491
I591
sS'screeching'
p3492
I3721
sS'stupidly'
p3493
I3722
sS'loves'
p3494
I2123
sS'lover'
p3495
I3724
sS'flashes'
p3496
I1722
sS'indistinct'
p3497
I3725
sS'torrent'
p3498
I3726
sS'collecting'
p3499
I3727
sS'straps'
p3500
I3728
sS'outwardly'
p3501
I3729
sS'lightly'
p3502
I1268
sS'splatter'
p3503
I1724
sS'gently'
p3504
I2156
sS'comfortable'
p3505
I3732
sS'tonight'
p3506
I1725
sS'comfortably'
p3507
I3733
sS'cavern'
p3508
I3734
sS'have'
p3509
I40
sS'need'
p3510
I277
sS'curved'
p3511
I3735
sS'clearly'
p3512
I1727
sS'screw'
p3513
I1728
sS'afraid'
p3514
I3736
sS'angle'
p3515
I3737
sS'bleached'
p3516
I1627
sS'able'
p3517
I862
sS'gingerly'
p3518
I2208
sS'instance'
p3519
I2211
sS'belief'
p3520
I3106
sS'dug'
p3521
I3282
sS'which'
p3522
I226
sS'handpainted'
p3523
I3742
sS'truck'
p3524
I1610
sS'bitterly'
p3525
I3744
sS'subject'
p3526
I3745
sS'vegetation'
p3527
I3746
sS'glancing'
p3528
I1521
sS'regard'
p3529
I2845
sS'relatively'
p3530
I3325
sS'ostracized'
p3531
I1903
sS'who'
p3532
I118
sS'satisfy'
p3533
I3748
sS'eight'
p3534
I1730
sS'preparations'
p3535
I3361
sS'cracking'
p3536
I3750
sS'hobble'
p3537
I3751
sS'business;'
p3538
I3752
sS'lidded'
p3539
I2009
sS'fisted'
p3540
I3753
sS'segment'
p3541
I3754
sS'why'
p3542
I252
sS'ure'
p3543
I3755
sS'deny'
p3544
I3756
sS'refreshing'
p3545
I3757
sS'pips'
p3546
I3758
sS'tramps'
p3547
I3759
sS'gather'
p3548
I1731
sS'stronger'
p3549
I863
sS'face'
p3550
I76
sS'looked'
p3551
I65
sS'deeply;'
p3552
I3760
sS'gesture'
p3553
I2490
sS'heartbeats'
p3554
I2421
sS'skinny'
p3555
I1127
sS'highest'
p3556
I4007
sS'normally'
p3557
I3762
sS'fact'
p3558
I3763
sS'delicately'
p3559
I3764
sS'kite'
p3560
I3765
sS'shuffle'
p3561
I3766
sS'rainbows'
p3562
I3767
sS'agreed'
p3563
I1128
sS'supported'
p3564
I3768
sS'tures'
p3565
I2358
sS'anyway'
p3566
I593
sS'rotating'
p3567
I3770
sS'bring'
p3568
I2368
sS'serving'
p3569
I3772
sS'parked'
p3570
I1733
sS'rebuke'
p3571
I3773
sS'fear'
p3572
I296
sS'gasping'
p3573
I1129
sS'pleased'
p3574
I1130
sS'jostling'
p3575
I2394
sS'nearer'
p3576
I3775
sS'wear'
p3577
I3269
sS'ha'
p3578
I1387
sS'grabbed'
p3579
I701
sS'cavort'
p3580
I3778
sS'tire'
p3581
I1349
sS'hadn'
p3582
I325
sS'clutching'
p3583
I1735
sS'('
p3584
I518
sS'madman'
p3585
I3781
sS'pickup'
p3586
I3782
sS'should'
p3587
I594
sS'surroundings'
p3588
I3783
sS'tape'
p3589
I3784
sS'reorganizing'
p3590
I3785
sS'fuel'
p3591
I1736
sS'emitting'
p3592
I2445
sS'thousands'
p3593
I1951
sS'footstep'
p3594
I3788
sS'hope'
p3595
I1737
sS'meant'
p3596
I581
sS'count'
p3597
I4008
sS'twitched'
p3598
I2455
sS'handle'
p3599
I1365
sS'listened'
p3600
I3790
sS'means'
p3601
I1739
sS'indentations'
p3602
I3791
sS'familiar'
p3603
I864
sS'leased'
p3604
I3792
sS'lucky'
p3605
I1132
sS'accep'
p3606
I3793
sS'ones'
p3607
I595
sS'stars'
p3608
I3794
sS'words'
p3609
I326
sS'exchanges'
p3610
I3795
sS'timing'
p3611
I1668
sS'poof'
p3612
I2206
sS'routine'
p3613
I3108
sS'endless'
p3614
I1740
sS'brain'
p3615
I1133
sS'married'
p3616
I3799
sS'fixes'
p3617
I3800
sS'eyebrow'
p3618
I3801
sS'calling'
p3619
I771
sS'stuff'
p3620
I703
sS'she'
p3621
I31
sS'contain'
p3622
I2067
sS'mercedes'
p3623
I1742
sS'grab'
p3624
I1743
sS'fixed'
p3625
I3804
sS'turquoise'
p3626
I2214
sS'motorcycle'
p3627
I861
sS'available'
p3628
I3805
sS'temporarily'
p3629
I3806
sS'sensuality'
p3630
I1745
sS'pants'
p3631
I3938
sS'frame'
p3632
I2561
sS'shake'
p3633
I3808
sS'shrouded'
p3634
I979
sS'obliterating'
p3635
I3109
sS'mentioned'
p3636
I3811
sS'latin'
p3637
I3812
sS'slanted'
p3638
I3813
sS'driveway'
p3639
I1746
sS'desperate'
p3640
I704
sS'racket'
p3641
I3814
sS'stack'
p3642
I3815
sS'packed'
p3643
I3816
sS'gmail'
p3644
I2789
sS'closer'
p3645
I865
sS'corpses'
p3646
I3818
sS'destiny'
p3647
I3820
sS'placed'
p3648
I3821
sS'pattern'
p3649
I1134
sS'nightmare'
p3650
I3822
sS'horribly'
p3651
I1747
sS'cruel'
p3652
I3823
sS'favor'
p3653
I3824
sS'written'
p3654
I1221
sS'unravel'
p3655
I2635
sS'closed'
p3656
I1748
sS'horrible'
p3657
I1136
sS'progress'
p3658
I1426
sS'neither'
p3659
I3827
sS'bunch'
p3660
I3828
sS'bought'
p3661
I1137
sS'ends'
p3662
I1749
sS'ability'
p3663
I3829
sS'joy'
p3664
I3831
sS'foetus'
p3665
I1750
sS'butts'
p3666
I3832
sS'kicking'
p3667
I3833
sS'job'
p3668
I596
sS'punctured'
p3669
I3834
sS'hooks'
p3670
I3835
sS'joe'
p3671
I37
sS'jog'
p3672
I2682
sS'melds'
p3673
I3837
sS'stutters'
p3674
I2687
sS'optional'
p3675
I3839
sS'staring'
p3676
I1751
sS'praying'
p3677
I3356
sS'hits'
p3678
I519
sS'figured'
p3679
I3840
sS'feebly'
p3680
I3841
sS'site'
p3681
I3888
sS'odour'
p3682
I3842
sS'joke'
p3683
I1838
sS'taking'
p3684
I3844
sS'drug'
p3685
I2717
sS'pulp'
p3686
I3846
sS'newbies'
p3687
I3847
sS'grain'
p3688
I1011
sS'affection'
p3689
I3848
sS'tormentor'
p3690
I3849
sS'passing'
p3691
I2736
sS'journey'
p3692
I1723
sS'otherwise'
p3693
I1753
sS'comment'
p3694
I1754
sS'torn'
p3695
I768
sS'spewed'
p3696
I3852
sS'flecked'
p3697
I4015
sS'wall'
p3698
I705
sS'tuesday'
p3699
I3853
sS'speaker'
p3700
I3901
sS'sicken'
p3701
I3124
sS'walk'
p3702
I253
sS'invisible'
p3703
I3854
sS'recognized'
p3704
I3981
sS'laugh'
p3705
I374
sS'table'
p3706
I278
sS'winning'
p3707
I3855
sS'rpm'
p3708
I3856
sS'deprecating'
p3709
I3630
sS'quit'
p3710
I3858
sS'rusty'
p3711
I2521
sS'fishers'
p3712
I866
sS'thanked'
p3713
I3860
sS'copies'
p3714
I3861
sS'gaze'
p3715
I801
sS'slowly'
p3716
I233
sS'fuzzy'
p3717
I3715
sS'hawking'
p3718
I2842
sS'ah'
p3719
I3863
sS'compensating'
p3720
I3864
sS'curtain'
p3721
I3865
sS'waste'
p3722
I2853
sS'suggested'
p3723
I2533
sS'shoulders'
p3724
I1139
sS'senses'
p3725
I867
sS'received'
p3726
I3868
sS'painted'
p3727
I3378
sS'moved'
p3728
I439
sS'al'
p3729
I803
sS'finished'
p3730
I3870
sS'mix'
p3731
I3740
sS'sensed'
p3732
I1141
sS'watches'
p3733
I3871
sS'kicks'
p3734
I3872
sS'prescription'
p3735
I1899
sS'fellow'
p3736
I1756
sS'present'
p3737
I3874
sS'clumsily'
p3738
I3875
sS'novel'
p3739
I3876
sS'unlike'
p3740
I1757
sS'pummeling'
p3741
I3877
sS'fearful'
p3742
I1758
sS'vanilla'
p3743
I1142
sS'vicki'
p3744
I1759
sS'harder'
p3745
I706
sS'irate'
p3746
I3878
sS'choices'
p3747
I3879
sS'will'
p3748
I279
sS'politely'
p3749
I3880
sS'owns'
p3750
I3881
sS'wild'
p3751
I1143
sS'balance'
p3752
I3882
sS'supply'
p3753
I3883
sS'kimball'
p3754
I1045
sS'stuffing'
p3755
I2972
sS'ringing'
p3756
I3886
sS'ripe'
p3757
I868
sS'almost'
p3758
I138
sS'vi'
p3759
I3887
sS'ink'
p3760
I4022
sS'lush'
p3761
I1760
sS'surprisingly'
p3762
I2792
sS'surface'
p3763
I3889
sS'berates'
p3764
I3890
sS'weighed'
p3765
I1761
sS'trickled'
p3766
I2870
sS'swinging'
p3767
I3891
sS'creak'
p3768
I3892
sS'hearted'
p3769
I2447
sS'junction'
p3770
I3894
sS'sits'
p3771
I3895
sS'halt'
p3772
I2504
sS'tumbled'
p3773
I3896
sS'cawing'
p3774
I1887
sS'shooting'
p3775
I1799
sS'stooping'
p3776
I3897
sS'insight'
p3777
I3898
sS')'
p3778
I495
sS'solely'
p3779
I3263
sS'began'
p3780
I297
sS'cross'
p3781
I1762
sS'brightened'
p3782
I3900
sS'strange'
p3783
I597
sS'slammed'
p3784
I1290
sS'jaw'
p3785
I3780
sS'devastated'
p3786
I3902
sS'cream'
p3787
I1577
sS'tapped'
p3788
I3903
sS'blooms'
p3789
I3904
sS'rake'
p3790
I3905
sS'infinity'
p3791
I3906
sS'drink'
p3792
I1060
sS'upon'
p3793
I1765
sS'effect'
p3794
I1145
sS'beast'
p3795
I3907
sS'sagged'
p3796
I3908
sS'dust'
p3797
I542
sS'overalls'
p3798
I3910
sS'orgy'
p3799
I2581
sS'energized'
p3800
I1982
sS'scaling'
p3801
I2511
sS'paycheck'
p3802
I2755
sS'off'
p3803
I92
sS'i'
p3804
I5
sS'groans'
p3805
I1999
sS'colour'
p3806
I1146
sS'well'
p3807
I207
sS'banging'
p3808
I3914
sS'fighting'
p3809
I3915
sS'col'
p3810
I3916
sS'thought'
p3811
I131
sS'qualified'
p3812
I3917
sS'english'
p3813
I1768
sS'tasted'
p3814
I3918
sS'tails'
p3815
I2513
sS'ified'
p3816
I3920
sS'usual'
p3817
I1554
sS'coaster'
p3818
I3922
sS'tickles'
p3819
I1874
sS'cried'
p3820
I707
sS'heavily'
p3821
I958
sS'moments'
p3822
I870
sS'emerald'
p3823
I3924
sS'tance'
p3824
I2498
sS'distant'
p3825
I1148
sS'fishing'
p3826
I375
sS'rocked'
p3827
I3926
sS'seats'
p3828
I1149
sS'bohemian'
p3829
I3435
sS'happiness'
p3830
I1770
sS'flashlight'
p3831
I1150
sS'ushered'
p3832
I3928
sS'cigarette'
p3833
I3416
sS'bicycles'
p3834
I3929
sS'field'
p3835
I1771
sS'headed'
p3836
I922
sS'sky'
p3837
I1726
sS'lake'
p3838
I871
sS'bench'
p3839
I834
sS'add'
p3840
I1773
sS'other'
p3841
I221
sS'halo'
p3842
I2515
sS'wet'
p3843
I872
sS'executive'
p3844
I3943
sS'match'
p3845
I2265
sS'oar'
p3846
I3934
sS'references'
p3847
I2824
sS'articles'
p3848
I3649
sS'background'
p3849
I3936
sS'fath'
p3850
I3937
sS'crushed'
p3851
I528
sS'dryer'
p3852
I3939
sS'five'
p3853
I453
sS'know'
p3854
I81
sS'knot'
p3855
I3350
sS'desk'
p3856
I234
sS'press'
p3857
I3941
sS'immediately'
p3858
I1152
sS'throng'
p3859
I3942
sS'loss'
p3860
I873
sS'forcing'
p3861
I2881
sS'crisp'
p3862
I1599
sS'like'
p3863
I38
sS'lost'
p3864
I839
sS'chairs'
p3865
I3381
sS'ring'
p3866
I1775
sS'perpetual'
p3867
I3948
sS'robes'
p3868
I2921
sS'garage'
p3869
I1153
sS'stagger'
p3870
I1776
sS'flickering'
p3871
I3950
sS'clutch'
p3872
I3222
sS'become'
p3873
I598
sS'soft'
p3874
I254
sS'smoothness'
p3875
I3069
sS'frosty'
p3876
I3953
sS'virginity'
p3877
I3954
sS'shed'
p3878
I709
sS'because'
p3879
I154
sS'glare'
p3880
I3955
sS'wrestle'
p3881
I3774
sS'smoothly'
p3882
I3956
sS'searching'
p3883
I1154
sS'alive'
p3884
I710
sS'hair'
p3885
I195
sS'growth'
p3886
I2031
sS'warmer'
p3887
I3450
sS'flush'
p3888
I3959
sS'home'
p3889
I184
sS'liking'
p3890
I1625
sS'blonde'
p3891
I2144
sS'happens'
p3892
I1778
sS'notepad'
p3893
I3961
sS'lead'
p3894
I3962
sS'dunes'
p3895
I1779
sS'lauch'
p3896
I2882
sS'avoid'
p3897
I1434
sS'delaware'
p3898
I1947
sS'thank'
p3899
I1780
sS'markers'
p3900
I3492
sS'profitable'
p3901
I3359
sS'enrages'
p3902
I2107
sS'does'
p3903
I599
sS'masked'
p3904
I3968
sS'screwed'
p3905
I3511
sS'fisherman'
p3906
I3970
sS'?'
p3907
I33
sS'pasty'
p3908
I3971
sS'mimicking'
p3909
I3972
sS'noise'
p3910
I454
sS'schedule'
p3911
I1155
sS'worthless'
p3912
I3279
sS'pressure'
p3913
I600
sS'murdered'
p3914
I3974
sS'although'
p3915
I712
sS'instinct'
p3916
I3557
sS'furtive'
p3917
I3977
sS'revolution'
p3918
I3246
sS'sister'
p3919
I1111
sS'rare'
p3920
I3979
sS'carried'
p3921
I874
sS'getting'
p3922
I583
sS'universe'
p3923
I1782
sS'urged'
p3924
I3475
sS'seeds'
p3925
I1783
sS'blackness'
p3926
I585
sS'fleshy'
p3927
I1115
sS'tongue'
p3928
I455
sS'perish'
p3929
I3678
sS'owl'
p3930
I3983
sS'equally'
p3931
I1784
sS'own'
p3932
I327
sS'letters'
p3933
I3636
sS'blindly'
p3934
I3196
sS'billions'
p3935
I3985
sS'screamed'
p3936
I713
sS'weather'
p3937
I1785
sS'promise'
p3938
I1786
sS'tiny'
p3939
I521
sS'female'
p3940
I3986
sS'secretive'
p3941
I3987
sS'roads'
p3942
I3988
sS'ketchup'
p3943
I3989
sS'quickly'
p3944
I456
sS'pointless'
p3945
I3990
sS'mere'
p3946
I1787
sS'yanked'
p3947
I3991
sS'utility'
p3948
I3676
sS'urinal'
p3949
I3130
sS'exciting'
p3950
I2809
sS'rushed'
p3951
I1157
sS'*'
p3952
I901
sS'spiral'
p3953
I3994
sS'board'
p3954
I2213
sS'much'
p3955
I240
sS'husk'
p3956
I3957
sS'biggest'
p3957
I1720
sS'squeal'
p3958
I2747
sS'uncontrollable'
p3959
I3999
sS'naturally'
p3960
I4000
sS'buy'
p3961
I714
sS'north'
p3962
I4001
sS'chatting'
p3963
I4002
sS'ambiance'
p3964
I4003
sS'but'
p3965
I29
sS'volume'
p3966
I4004
sS'reminds'
p3967
I1789
sS'hi'
p3968
I1790
sS'mailed'
p3969
I4005
sS'threaten'
p3970
I3286
sS'grate'
p3971
I4006
sS'ear'
p3972
I1304
sS'eat'
p3973
I715
sS'he'
p3974
I12
sS'swarmed'
p3975
I3869
sS'made'
p3976
I113
sS'tossed'
p3977
I1791
sS'beds'
p3978
I2301
sS'places'
p3979
I1792
sS'comfort'
p3980
I3779
sS'dangerous'
p3981
I1793
sS'smooth'
p3982
I1794
sS'excitement'
p3983
I877
sS'record'
p3984
I1617
sS'below'
p3985
I1795
sS'decays'
p3986
I1809
sS'onwards'
p3987
I2969
sS'woke'
p3988
I1797
sS'gagged'
p3989
I1798
sS'infants'
p3990
I4012
sS'picks'
p3991
I4013
sS'problem'
p3992
I716
sS'piece'
p3993
I1158
sS'minutes'
p3994
I328
sS'display'
p3995
I4014
sS'block'
p3996
I3039
sS'acids'
p3997
I4016
sS'mask'
p3998
I4017
sS'pic'
p3999
I1896
sS'pie'
p4000
I717
sS'slowing'
p4001
I4019
sS'twist'
p4002
I1159
sS'beats'
p4003
I4020
sS'resented'
p4004
I4021
sS'slumped'
p4005
I3830
sS'flight'
p4006
I4023
sS'ing'
p4007
I869
sS'pit'
p4008
I3899
sS'happen'
p4009
I4025
sS'deeper'
p4010
I4026
sS'placation'
p4011
I4027
sS'avoided'
p4012
I4028
sS"'ll"
p4013
I167
sS'variety'
p4014
I1147
sS'dressed'
p4015
I1800
sS'silenced'
p4016
I4030
sS'oak'
p4017
I1801
sS'forests'
p4018
I1802
sS'lately'
p4019
I3380
sS'book'
p4020
I878
sS'details'
p4021
I1803
sS'sick'
p4022
I457
sS'suppress'
p4023
I4032
sS'suspiciously'
p4024
I1804
sS'<ellipsis>'
p4025
I17
sS'illusion'
p4026
I4033
sS'reckless'
p4027
I4034
sS'conclusion'
p4028
I4035
sS'junk'
p4029
I4036
sS'kinds'
p4030
I4037
sS'monday'
p4031
I4038
sS'in;'
p4032
I3965
sS'shredded'
p4033
I4040
sS'footprints'
p4034
I1160
sS'stay'
p4035
I879
sS'chance'
p4036
I719
sS'longing'
p4037
I2738
sS'wrenching'
p4038
I4041
sS'basement'
p4039
I1560
sS'gap'
p4040
I1372
sS'friends'
p4041
I880
sS'vein'
p4042
I4043
sS'upwards'
p4043
I720
sS'ghost'
p4044
I4044
sS'coat'
p4045
I494
sS'coupling'
p4046
I3617
sS'rotting'
p4047
I1161
sS'door;'
p4048
I3482
sS'lasted'
p4049
I4047
sS'hiker'
p4050
I4048
sS'lift'
p4051
I4049
sS'weekenders'
p4052
I1513
sS'yell'
p4053
I4051
sS'baked'
p4054
I4052
sS'gardens'
p4055
I4053
sa(lp4056
g2239
ag383
ag648
ag752
ag266
ag3804
ag1468
ag2443
ag2056
ag1879
ag2262
ag698
ag3974
ag174
ag706
ag900
ag1435
ag4025
ag2584
ag770
ag1974
ag1971
ag1035
ag827
ag1873
ag1912
ag975
ag1942
ag1994
ag3965
ag2602
ag3621
ag976
ag3907
ag453
ag575
ag1570
ag3671
ag3863
ag3209
ag3509
ag2989
ag134
ag3397
ag2883
ag288
ag2944
ag2908
ag1916
ag3244
ag2112
ag958
ag647
ag1257
ag1314
ag1756
ag278
ag2031
ag709
ag1892
ag3229
ag277
ag1463
ag2882
ag1406
ag3551
ag1188
ag1966
ag1431
ag2627
ag756
ag1194
ag1803
ag1003
ag2299
ag175
ag3550
ag2629
ag1315
ag568
ag878
ag3854
ag3438
ag394
ag897
ag590
ag1246
ag98
ag212
ag1325
ag905
ag1486
ag3803
ag527
ag250
ag420
ag1981
ag339
ag879
ag1562
ag3349
ag3457
ag257
ag2293
ag2739
ag1283
ag2173
ag625
ag1969
ag3269
ag579
ag1156
ag2230
ag3976
ag480
ag1054
ag2924
ag1885
ag3532
ag3077
ag3142
ag3358
ag200
ag1583
ag3357
ag71
ag96
ag1398
ag1685
ag2178
ag2182
ag3811
ag187
ag311
ag843
ag3016
ag3216
ag3227
ag3758
ag1462
ag1210
ag234
ag1407
ag347
ag471
ag753
ag989
ag2539
ag213
ag814
ag981
ag1503
ag2160
ag2254
ag3879
ag633
ag810
ag1282
ag1412
ag1449
ag2425
ag677
ag687
ag1360
ag1552
ag1682
ag3360
ag4013
ag309
ag675
ag196
ag1788
ag1830
ag2369
ag195
ag395
ag494
ag1476
ag1487
ag1496
ag1683
ag1726
ag3074
ag3411
ag3889
ag90
ag414
ag714
ag1348
ag1549
ag1887
ag2113
ag2468
ag2791
ag3051
ag3885
ag34
ag86
ag229
ag732
ag2000
ag1591
ag2068
ag2340
ag2567
ag3172
ag1201
ag3807
ag163
ag1389
ag355
ag405
ag466
ag646
ag659
ag1016
ag1027
ag1241
ag1391
ag1607
ag1710
ag3841
ag1960
ag2430
ag2668
ag3298
ag3522
ag2116
ag715
ag811
ag1428
ag2091
ag2790
ag3716
ag3856
ag89
ag138
ag362
ag379
ag619
ag3955
ag834
ag926
ag1064
ag1504
ag1908
ag1968
ag2137
ag2632
ag1602
ag2998
ag3160
ag3542
ag3702
ag3874
ag928
ag441
ag497
ag1076
ag1551
ag1618
ag1622
ag1741
ag1814
ag1893
ag2064
ag2109
ag2348
ag2362
ag2509
ag2533
ag2747
ag2852
ag2887
ag2975
ag2990
ag3359
ag3510
ag3706
ag3748
ag97
ag242
ag916
ag1253
ag1321
ag1481
ag1096
ag2360
ag2061
ag2086
ag2088
ag2346
ag2483
ag3037
ag3060
ag3215
ag3572
ag3780
ag59
ag190
ag310
ag435
ag461
ag485
ag764
ag807
ag1183
ag143
ag999
ag1030
ag1103
ag1263
ag1422
ag1489
ag1604
ag1732
ag1790
ag1853
ag2283
ag2314
ag2586
ag2701
ag2927
ag3118
ag3191
ag3582
ag3609
ag3932
ag3994
ag2785
ag378
ag429
ag723
ag1502
ag970
ag1410
ag1451
ag1744
ag1956
ag2235
ag2450
ag2461
ag2618
ag2666
ag2967
ag3311
ag3450
ag2271
ag1763
ag366
ag457
ag508
ag530
ag817
ag969
ag166
ag1313
ag1417
ag1577
ag1659
ag1890
ag2084
ag2290
ag2344
ag2377
ag2556
ag2591
ag2633
ag3007
ag3152
ag3178
ag3206
ag3312
ag1290
ag3705
ag3826
ag21
ag154
ag155
ag177
ag442
ag493
ag549
ag670
ag845
ag870
ag140
ag992
ag1113
ag1115
ag1277
ag2249
ag1372
ag1430
ag1531
ag1601
ag1705
ag2520
ag1773
ag1776
ag2798
ag1921
ag2104
ag2162
ag2245
ag2834
ag2547
ag2548
ag2647
ag2684
ag2689
ag2726
ag2907
ag2963
ag3097
ag3333
ag3485
ag8
ag22
ag66
ag169
ag2067
ag370
ag599
ag799
ag918
ag2889
ag985
ag1018
ag1059
ag173
ag1311
ag1330
ag1342
ag1354
ag1385
ag237
ag1542
ag1805
ag3728
ag1687
ag2114
ag2222
ag2233
ag2288
ag2479
ag349
ag2682
ag2807
ag2940
ag2976
ag3109
ag3267
ag3853
ag3910
ag3928
ag3944
ag4022
ag10
ag424
ag141
ag181
ag2066
ag217
ag433
ag436
ag438
ag455
ag550
ag658
ag763
ag1635
ag950
ag1066
ag1097
ag1114
ag1139
ag1214
ag1292
ag1316
ag1523
ag1532
ag1638
ag1658
ag1774
ag1781
ag1250
ag1859
ag1865
ag1925
ag1941
ag2131
ag2139
ag2168
ag4045
ag3778
ag2310
ag2316
ag1736
ag2529
ag2530
ag2625
ag2636
ag2707
ag2749
ag2761
ag2823
ag2844
ag2959
ag3042
ag3207
ag3372
ag3377
ag3388
ag3398
ag3418
ag3473
ag1195
ag3584
ag3678
ag215
ag3939
ag84
ag2318
ag247
ag268
ag313
ag348
ag3851
ag532
ag536
ag543
ag574
ag601
ag2831
ag632
ag760
ag761
ag863
ag865
ag949
ag998
ag3797
ag1029
ag1129
ag1166
ag1209
ag1244
ag1249
ag1397
ag1534
ag1538
ag1553
ag1361
ag1593
ag1599
ag1648
ag1666
ag1792
ag1878
ag2361
ag1944
ag1976
ag1789
ag2398
ag2157
ag2256
ag2264
ag2308
ag2475
ag2485
ag2527
ag2566
ag2610
ag2772
ag2847
ag2886
ag2890
ag1081
ag1837
ag3057
ag3596
ag3125
ag3922
ag3288
ag3926
ag3392
ag3412
ag3433
ag3435
ag3469
ag3491
ag127
ag3566
ag3587
ag3607
ag3668
ag3783
ag3873
ag3903
ag3913
ag41
ag81
ag136
ag160
ag1924
ag271
ag284
ag387
ag392
ag413
ag2812
ag526
ag596
ag608
ag637
ag640
ag108
ag671
ag2526
ag750
ag2158
ag778
ag847
ag148
ag153
ag996
ag1061
ag1079
ag2910
ag1109
ag1112
ag1131
ag1211
ag1217
ag1235
ag1274
ag1297
ag1383
ag1411
ag1415
ag1441
ag1484
ag1510
ag1533
ag1544
ag1592
ag1600
ag1624
ag3148
ag1697
ag1708
ag1761
ag1793
ag1936
ag1946
ag1990
ag193
ag2145
ag2200
ag2225
ag2287
ag2321
ag2354
ag2357
ag1926
ag2399
ag2400
ag2454
ag2459
ag2484
ag2514
ag2551
ag2571
ag2575
ag2694
ag2719
ag2729
ag2751
ag2758
ag1811
ag1819
ag3194
ag2865
ag2877
ag2939
ag2987
ag3048
ag3116
ag3115
ag1197
ag521
ag3253
ag3282
ag2911
ag3373
ag3379
ag220
ag3440
ag3466
ag3481
ag3579
ag3329
ag3620
ag3640
ag3698
ag3745
ag3820
ag2175
ag3878
ag3884
ag3310
ag3915
ag3936
ag3961
ag3973
ag3992
ag4000
ag2267
ag4036
ag4043
ag7
ag2679
ag107
ag2803
ag133
ag161
ag192
ag204
ag218
ag263
ag303
ag307
ag312
ag376
ag423
ag2802
ag473
ag554
ag582
ag595
ag597
ag610
ag639
ag654
ag669
ag694
ag725
ag3222
ag739
ag740
ag742
ag775
ag793
ag812
ag1198
ag886
ag904
ag816
ag2216
ag994
ag1007
ag164
ag1082
ag1085
ag1153
ag1160
ag1234
ag3695
ag1294
ag1320
ag3619
ag1364
ag70
ag1418
ag1425
ag1473
ag1506
ag1547
ag1567
ag1627
ag1628
ag1642
ag1654
ag1669
ag942
ag1696
ag2247
ag1719
ag1734
ag2417
ag956
ag1779
ag1815
ag1833
ag1842
ag1868
ag1872
ag1874
ag1898
ag1911
ag3715
ag1278
ag3729
ag327
ag2051
ag2069
ag2075
ag2108
ag2140
ag2192
ag2269
ag2277
ag2279
ag2292
ag2294
ag2295
ag2319
ag2328
ag2330
ag2364
ag2394
ag2433
ag2442
ag2489
ag1759
ag2523
ag2563
ag2565
ag2580
ag2585
ag2653
ag2659
ag2661
ag3839
ag2718
ag1801
ag616
ag2842
ag3864
ag2951
ag2953
ag2978
ag2999
ag3029
ag3070
ag3084
ag896
ag3096
ag3135
ag3146
ag3162
ag3174
ag3187
ag3228
ag3271
ag3280
ag1226
ag3383
ag3420
ag3464
ag3627
ag3517
ag3549
ag3603
ag3645
ag3712
ag3725
ag3757
ag4007
ag3822
ag3838
ag3843
ag3860
ag3921
ag3292
ag239
ag3983
ag4020
ag4035
ag4041
ag13
ag44
ag1370
ag72
ag680
ag112
ag113
ag3424
ag990
ag188
ag1613
ag210
ag255
ag267
ag279
ag295
ag334
ag335
ag346
ag360
ag3952
ag381
ag2098
ag396
ag2102
ag417
ag67
ag428
ag446
ag458
ag491
ag495
ag499
ag501
ag76
ag513
ag517
ag518
ag531
ag546
ag556
ag3836
ag572
ag584
ag589
ag634
ag657
ag660
ag673
ag78
ag716
ag730
ag777
ag789
ag791
ag792
ag806
ag823
ag841
ag860
ag873
ag1392
ag895
ag909
ag2885
ag1525
ag946
ag951
ag959
ag967
ag1004
ag832
ag1028
ag165
ag1051
ag1062
ag2599
ag3821
ag1121
ag1130
ag1132
ag1150
ag1157
ag1498
ag2744
ag859
ag1202
ag2226
ag1233
ag1248
ag1251
ag1260
ag1262
ag1266
ag1270
ag1284
ag1288
ag1302
ag3634
ag1333
ag1346
ag1347
ag1352
ag1579
ag1375
ag1399
ag2961
ag1419
ag1420
ag1423
ag1426
ag1427
ag1444
ag1447
ag1516
ag1537
ag1560
ag1578
ag2992
ag1606
ag1625
ag1629
ag1632
ag1633
ag1641
ag1675
ag1677
ag273
ag1702
ag1729
ag3688
ag1739
ag1766
ag1786
ag1791
ag1797
ag1800
ag1824
ag1825
ag1834
ag3026
ag1843
ag1844
ag1848
ag1849
ag1864
ag1913
ag3040
ag2368
ag1998
ag2007
ag2008
ag2018
ag2019
ag2036
ag2037
ag2043
ag2048
ag651
ag2081
ag2093
ag385
ag490
ag2117
ag3754
ag2195
ag2197
ag2206
ag2152
ag2211
ag2231
ag1717
ag2248
ag2273
ag2307
ag1046
ag2326
ag2352
ag2384
ag3792
ag2391
ag1745
ag2418
ag2447
ag2453
ag2492
ag2536
ag2541
ag2546
ag2559
ag2600
ag2604
ag2606
ag2645
ag2660
ag2670
ag2676
ag2687
ag2720
ag2722
ag2735
ag2741
ag2742
ag2743
ag3180
ag2793
ag2515
ag1691
ag2879
ag2891
ag2894
ag3204
ag2926
ag2945
ag2971
ag2972
ag3192
ag3000
ag3008
ag1070
ag3017
ag3033
ag3035
ag2508
ag3086
ag3106
ag3130
ag3134
ag3212
ag3224
ag3919
ag3238
ag3257
ag3259
ag3927
ag2130
ag3345
ag3389
ag3409
ag139
ag3430
ag3484
ag3486
ag3487
ag2637
ag2640
ag3555
ag3563
ag3573
ag3574
ag583
ag3605
ag3615
ag3649
ag1371
ag3657
ag3661
ag1922
ag3724
ag1967
ag3732
ag3743
ag3751
ag1975
ag3794
ag3806
ag4014
ag3825
ag3828
ag3831
ag1584
ag3858
ag3869
ag3883
ag3911
ag364
ag3951
ag3993
ag4002
ag4034
ag4047
ag9
ag11
ag2388
ag17
ag18
ag3406
ag50
ag51
ag55
ag56
ag64
ag135
ag2045
ag681
ag88
ag94
ag101
ag104
ag105
ag2021
ag109
ag118
ag121
ag1205
ag3479
ag131
ag2428
ag145
ag157
ag170
ag934
ag184
ag209
ag226
ag2773
ag228
ag232
ag1396
ag1509
ag240
ag243
ag1545
ag39
ag252
ag259
ag270
ag1681
ag274
ag719
ag282
ag316
ag321
ag322
ag326
ag2034
ag331
ag333
ag340
ag342
ag3654
ag359
ag1477
ag367
ag375
ag380
ag389
ag2507
ag409
ag419
ag425
ag430
ag443
ag445
ag449
ag456
ag478
ag496
ag500
ag502
ag505
ag506
ag511
ag512
ag522
ag1086
ag85
ag537
ag544
ag2480
ag3059
ag548
ag555
ag558
ag564
ag565
ag576
ag577
ag578
ag591
ag604
ag605
ag609
ag612
ag622
ag624
ag629
ag3502
ag650
ag652
ag661
ag1479
ag676
ag685
ag691
ag696
ag700
ag713
ag717
ag2853
ag731
ag735
ag737
ag738
ag741
ag743
ag119
ag749
ag754
ag3784
ag771
ag772
ag774
ag776
ag780
ag794
ag796
ag128
ag800
ag801
ag805
ag815
ag826
ag3972
ag835
ag842
ag851
ag852
ag854
ag857
ag866
ag867
ag877
ag883
ag887
ag893
ag894
ag902
ag908
ag914
ag1520
ag924
ag930
ag940
ag960
ag966
ag980
ag1011
ag1012
ag402
ag1019
ag159
ag1221
ag1022
ag1025
ag1026
ag1045
ag839
ag1055
ag1057
ag1068
ag1077
ag2389
ag1094
ag1546
ag1105
ag1108
ag1111
ag3581
ag1119
ag1127
ag1134
ag1146
ag1163
ag330
ag1170
ag1176
ag855
ag2519
ag1185
ag1189
ag1190
ag1196
ag1213
ag3599
ag2227
ag1220
ag2941
ag1222
ag1242
ag1245
ag4040
ag1258
ag1267
ag1281
ag1287
ag201
ag1707
ag1296
ag1309
ag1324
ag3490
ag1329
ag1339
ag1341
ag1343
ag3578
ag1353
ag1566
ag1362
ag1368
ag1369
ag1208
ag1376
ag1377
ag1379
ag3482
ag2252
ag207
ag1402
ag1408
ag2257
ag1413
ag1416
ag1556
ag1421
ag1424
ag1448
ag1453
ag1454
ag1455
ag1456
ag1465
ag1474
ag907
ag1491
ag1493
ag1494
ag1497
ag1519
ag1522
ag1540
ag2671
ag1559
ag1564
ag3658
ag1574
ag1581
ag1582
ag1596
ag258
ag1611
ag1617
ag3897
ag1626
ag1639
ag1655
ag1667
ag1670
ag1672
ag1688
ag1689
ag1693
ag1695
ag1700
ag1701
ag1704
ag2194
ag1715
ag1718
ag3012
ag1724
ag1725
ag1737
ag2698
ag454
ag1771
ag1783
ag2754
ag1813
ag1831
ag1832
ag306
ag1845
ag1847
ag1856
ag1875
ag1884
ag1888
ag1889
ag1927
ag1947
ag1959
ag1972
ag1980
ag1986
ag1996
ag1999
ag2012
ag2013
ag2014
ag2015
ag2024
ag2026
ag2029
ag2033
ag2040
ag2049
ag2325
ag1175
ag2059
ag2073
ag2096
ag2099
ag276
ag2107
ag2118
ag2127
ag2128
ag618
ag2134
ag2148
ag351
ag2166
ag2172
ag356
ag2180
ag2183
ag2185
ag2408
ag2190
ag2205
ag4052
ag2210
ag1219
ag2236
ag2238
ag2244
ag2260
ag2276
ag3528
ag2303
ag2329
ag2333
ag2439
ag2390
ag2396
ag2397
ag2407
ag2412
ag2421
ag2331
ag2427
ag2434
ag1748
ag2438
ag2444
ag2419
ag2465
ag2469
ag2471
ag2549
ag2478
ag2502
ag2503
ag2783
ag2510
ag2513
ag2516
ag2521
ag2532
ag3005
ag2550
ag3817
ag1350
ag2569
ag824
ag2595
ag2598
ag4039
ag2070
ag2605
ag2621
ag2628
ag2836
ag2642
ag2643
ag2063
ag2650
ag3167
ag2655
ag2675
ag822
ag2680
ag2681
ag2683
ag3787
ag2705
ag2706
ag2709
ag2715
ag2724
ag317
ag1118
ag2748
ag2764
ag2506
ag2782
ag314
ag319
ag1866
ag2796
ag2797
ag2799
ag2819
ag2835
ag2837
ag2846
ag3862
ag2857
ag2863
ag2864
ag2871
ag3200
ag2901
ag2906
ag1090
ag2916
ag2922
ag3524
ag2932
ag2938
ag2942
ag1158
ag2952
ag2962
ag3984
ag2980
ag2848
ag2994
ag2995
ag3004
ag1661
ag3011
ag3890
ag3024
ag3516
ag3027
ag3034
ag3038
ag3044
ag3050
ag3053
ag1616
ag3067
ag3236
ag3072
ag3075
ag3082
ag3085
ag3093
ag3107
ag3366
ag1443
ag3124
ag3136
ag3140
ag2324
ag3150
ag3155
ag3156
ag3249
ag3159
ag3161
ag3164
ag3166
ag2654
ag3169
ag3173
ag3188
ag3190
ag3193
ag2849
ag3208
ag2232
ag3217
ag3219
ag3611
ag3220
ag3221
ag3232
ag3234
ag3235
ag3237
ag3241
ag3245
ag3250
ag3252
ag3260
ag3264
ag3268
ag3270
ag3314
ag3276
ag3278
ag3285
ag3291
ag2336
ag3300
ag3308
ag3309
ag3313
ag850
ag3325
ag1224
ag3339
ag2356
ag3347
ag3351
ag3354
ag3356
ag2745
ag1902
ag3382
ag3386
ag3394
ag3399
ag3297
ag3419
ag3179
ag3434
ag1238
ag3445
ag3451
ag2648
ag3461
ag3470
ag3471
ag3472
ag3957
ag3488
ag3496
ag3692
ag3503
ag3506
ag3837
ag3512
ag3513
ag808
ag3534
ag3548
ag1264
ag3570
ag437
ag3583
ag3591
ag3595
ag2657
ag3601
ag3614
ag1349
ag3623
ag3624
ag1395
ag3630
ag3639
ag3651
ag3656
ag3662
ag3665
ag3676
ag779
ag3693
ag3694
ag3182
ag3736
ag3740
ag3742
ag3744
ag3761
ag3765
ag3781
ag2337
ag623
ag3793
ag964
ag1308
ag3813
ag199
ag3830
ag3835
ag972
ag3840
ag1317
ag3866
ag3870
ag3013
ag3892
ag3895
ag3899
ag3376
ag3923
ag3925
ag3931
ag3937
ag3938
ag3946
ag891
ag3967
ag3968
ag3977
ag3979
ag3981
ag3982
ag3985
ag1345
ag3988
ag3989
ag3775
ag4015
ag4017
ag4018
ag4021
ag4024
ag492
ag58
ag2
ag4
ag3986
ag5
ag6
ag12
ag1940
ag15
ag636
ag16
ag2733
ag19
ag20
ag23
ag24
ag26
ag28
ag29
ag2006
ag31
ag2736
ag36
ag37
ag38
ag3068
ag2038
ag42
ag2740
ag45
ag1232
ag46
ag3683
ag47
ag48
ag49
ag52
ag53
ag54
ag57
ag61
ag62
ag63
ag65
ag68
ag69
ag73
ag74
ag75
ag2947
ag77
ag79
ag82
ag529
ag87
ag91
ag92
ag93
ag1043
ag99
ag100
ag208
ag103
ag106
ag2367
ag110
ag1393
ag111
ag3819
ag114
ag115
ag744
ag120
ag123
ag124
ag125
ag798
ag129
ag2755
ag130
ag132
ag3774
ag137
ag899
ag142
ag144
ag324
ag147
ag954
ag150
ag3999
ag152
ag699
ag3735
ag3427
ag1020
ag162
ag3531
ag2928
ag167
ag168
ag171
ag172
ag1099
ag176
ag178
ag179
ag180
ag182
ag183
ag185
ag189
ag2765
ag238
ag197
ag198
ag1414
ag1291
ag202
ag205
ag3028
ag206
ag3036
ag211
ag711
ag216
ag219
ag712
ag222
ag223
ag224
ag938
ag230
ag231
ag2072
ag235
ag236
ag1836
ag1501
ag241
ag244
ag3898
ag3441
ag249
ag253
ag3593
ag3442
ag254
ag256
ag1610
ag260
ag262
ag264
ag265
ag269
ag272
ag275
ag280
ag2997
ag281
ag920
ag283
ag285
ag286
ag3446
ag1772
ag290
ag291
ag292
ag293
ag296
ag297
ag298
ag299
ag300
ag301
ag3800
ag302
ag304
ag724
ag1851
ag308
ag726
ag315
ag318
ag320
ag323
ag1995
ag2025
ag328
ag332
ag336
ag2089
ag3805
ag341
ag343
ag344
ag345
ag3273
ag2155
ag352
ag2176
ag357
ag3539
ag361
ag2534
ag365
ag368
ag2094
ag371
ag373
ag374
ag377
ag382
ag384
ag2830
ag388
ag390
ag391
ag2035
ag3362
ag398
ag399
ag400
ag401
ag3886
ag2101
ag3460
ag404
ag408
ag410
ag411
ag415
ag416
ag418
ag421
ag422
ag426
ag427
ag431
ag432
ag434
ag439
ag440
ag1452
ag447
ag448
ag2805
ag451
ag452
ag1356
ag460
ag462
ag463
ag2808
ag467
ag1438
ag469
ag470
ag472
ag474
ag3622
ag476
ag477
ag479
ag481
ag483
ag484
ag486
ag487
ag489
ag507
ag509
ag510
ag2818
ag514
ag515
ag1978
ag516
ag519
ag520
ag2251
ag2981
ag523
ag525
ag533
ag534
ag535
ag538
ag539
ag540
ag542
ag545
ag2821
ag551
ag552
ag553
ag557
ag559
ag560
ag561
ag3902
ag563
ag566
ag567
ag569
ag570
ag571
ag573
ag581
ag1460
ag585
ag923
ag586
ag1915
ag588
ag592
ag3494
ag594
ag600
ag1464
ag603
ag606
ag607
ag611
ag613
ag614
ag615
ag768
ag2138
ag621
ag1031
ag1285
ag626
ag627
ag630
ag631
ag635
ag3891
ag638
ag641
ag643
ag488
ag644
ag645
ag649
ag653
ag656
ag662
ag663
ag3504
ag1478
ag668
ag2746
ag674
ag773
ag678
ag679
ag83
ag682
ag683
ag686
ag688
ag689
ag690
ag692
ag693
ag695
ag697
ag156
ag701
ag702
ag703
ag704
ag705
ag707
ag708
ag710
ag214
ag221
ag718
ag1543
ag720
ag721
ag722
ag102
ag727
ag728
ag729
ag733
ag734
ag736
ag2416
ag941
ag745
ag746
ag747
ag2154
ag748
ag751
ag3612
ag755
ag3518
ag762
ag765
ag3519
ag769
ag3954
ag3626
ag781
ag782
ag783
ag126
ag784
ag785
ag786
ag787
ag788
ag790
ag797
ag802
ag803
ag804
ag1752
ag1299
ag809
ag813
ag818
ag819
ag821
ag2845
ag825
ag828
ag829
ag2708
ag830
ag831
ag1015
ag833
ag836
ag837
ag838
ag350
ag840
ag1078
ag2542
ag844
ag846
ag849
ag1128
ag853
ag856
ag2872
ag861
ag862
ag864
ag868
ag869
ag3089
ag3845
ag872
ag874
ag875
ag876
ag880
ag881
ag882
ag884
ag885
ag888
ag889
ag890
ag892
ag1401
ag2982
ag2457
ag898
ag903
ag906
ag1490
ag911
ag913
ag915
ag917
ag3368
ag921
ag922
ag925
ag1521
ag927
ag929
ag931
ag932
ag933
ag935
ag3978
ag33
ag1678
ag943
ag944
ag945
ag947
ag948
ag2431
ag952
ag953
ag955
ag957
ag149
ag961
ag962
ag963
ag1796
ag965
ag968
ag971
ag973
ag974
ag977
ag978
ag1965
ag983
ag984
ag986
ag987
ag988
ag991
ag1852
ag993
ag995
ag997
ag2838
ag1001
ag1002
ag1005
ag1006
ag1404
ag1008
ag1009
ag1010
ag1013
ag1014
ag1017
ag1021
ag1023
ag1024
ag1442
ag1032
ag1033
ag1034
ag1036
ag1037
ag3565
ag1039
ag1040
ag1041
ag1042
ag1073
ag1044
ag1048
ag1049
ag1052
ag3568
ag1056
ag1058
ag1060
ag1065
ag1067
ag1069
ag2432
ag1071
ag1072
ag2455
ag1075
ag1080
ag1083
ag1084
ag2552
ag1087
ag1088
ag1089
ag2573
ag1092
ag1093
ag1374
ag1095
ag1897
ag1098
ag3575
ag1100
ag1102
ag2208
ag1106
ag1107
ag1110
ag1116
ag1117
ag2873
ag1120
ag1122
ag1124
ag1125
ag1126
ag459
ag1135
ag1136
ag1137
ag1138
ag1140
ag1141
ag1142
ag1143
ag1144
ag1145
ag1147
ag3554
ag1148
ag1149
ag1151
ag1152
ag1154
ag1155
ag1159
ag1161
ag2350
ag1162
ag1164
ag1165
ag1167
ag1168
ag1169
ag1171
ag1172
ag1173
ag158
ag1174
ag672
ag2053
ag1177
ag3592
ag3332
ag3769
ag1181
ag1182
ag1184
ag1186
ag1187
ag562
ag1192
ag3598
ag3137
ag2009
ag1199
ag2224
ag1692
ag1203
ag1204
ag3210
ag3132
ag3231
ag1212
ag1218
ag1223
ag3327
ag1225
ag3340
ag1227
ag1228
ag1230
ag1231
ag1575
ag1193
ag1236
ag1237
ag3436
ag1239
ag2343
ag1243
ag1247
ag1207
ag1252
ag1254
ag1255
ag1261
ag3553
ag1265
ag1269
ag1271
ag1273
ag1279
ag1280
ag1286
ag3824
ag1289
ag1904
ag1293
ag1295
ag1298
ag3772
ag1300
ag1301
ag1303
ag1304
ag1305
ag1307
ag3801
ag1310
ag3815
ag1312
ag3842
ag1630
ag1318
ag1319
ag1322
ag1323
ag3711
ag1326
ag1327
ag1328
ag1332
ag1334
ag1336
ag1337
ag1338
ag1340
ag1344
ag1835
ag3723
ag1351
ag1355
ag1357
ag1358
ag1359
ag1363
ag1365
ag1366
ag1367
ag1373
ag95
ag2954
ag1378
ag1380
ag1381
ag1382
ag1384
ag1387
ag1388
ag1871
ag2897
ag1394
ag1400
ag1403
ag2875
ag1405
ag338
ag3632
ag2332
ag2613
ag1432
ag1433
ag1434
ag2512
ag1436
ag1517
ag1437
ag225
ag2537
ag1439
ag1440
ag1445
ag1446
ag1640
ag2266
ag1458
ag1459
ag3799
ag1461
ag587
ag598
ag602
ag1466
ag1467
ag1469
ag1470
ag1471
ag1472
ag664
ag667
ag2955
ag1480
ag1482
ag1483
ag1485
ag1488
ag1594
ag2721
ag1492
ag1495
ag1499
ag1500
ag2800
ag1505
ag1507
ag1508
ag3246
ag1511
ag1513
ag1514
ag1515
ag30
ag1518
ag1550
ag919
ag3458
ag901
ag1524
ag1091
ag1526
ag1527
ag1529
ag1530
ag1535
ag1536
ag1539
ag2730
ag1881
ag1548
ag2322
ag1554
ag3655
ag939
ag1557
ag1558
ag1561
ag251
ag1563
ag1565
ag2697
ag1569
ag1571
ag1572
ag1573
ag1335
ag1576
ag1580
ag1712
ag1123
ag1586
ag1587
ag1588
ag1589
ag1590
ag3350
ag2296
ag1597
ag3079
ag1603
ag2993
ag1605
ag1608
ag1609
ag2302
ag1614
ag1615
ag1674
ag1652
ag1619
ag1620
ag1050
ag1623
ag1804
ag1743
ag1631
ag1634
ag2335
ag1636
ag3672
ag1822
ag1643
ag1644
ag1646
ag3674
ag1649
ag1650
ag1651
ag1653
ag1656
ag1657
ag1660
ag1934
ag1662
ag1663
ag1664
ag1668
ag1671
ag1673
ag1676
ag3404
ag1679
ag1680
ag1684
ag1686
ag2087
ag2103
ag2111
ag1694
ag1698
ag1699
ag1703
ag1706
ag1709
ag3685
ag3467
ag1713
ag1714
ag1716
ag1721
ag1723
ag1727
ag1728
ag1730
ag1733
ag1735
ag2353
ag1738
ag2082
ag1740
ag1742
ag1746
ag2436
ag3691
ag1751
ag4037
ag1753
ag1754
ag1755
ag1817
ag1757
ag1758
ag1760
ag1762
ag3958
ag1764
ag1765
ag1767
ag1768
ag1769
ag1770
ag1775
ag3802
ag1777
ag1778
ag1780
ag1782
ag1784
ag1785
ag1787
ag2315
ag1794
ag1795
ag397
ag1798
ag1799
ag2228
ag1806
ag1809
ag1810
ag1816
ag393
ag1818
ag2843
ag1820
ag1882
ag1823
ag1826
ag1827
ag1828
ag1829
ag2920
ag2535
ag1838
ag1839
ag1840
ag3644
ag1841
ag1846
ag3762
ag666
ag1850
ag3069
ag3073
ag1854
ag1855
ag1857
ag1858
ag1860
ag1861
ag1862
ag1863
ag3444
ag1867
ag1869
ag1870
ag3950
ag1877
ag1880
ag3263
ag1047
ag1883
ag1886
ag1891
ag2028
ag1894
ag1895
ag1896
ag1899
ag1900
ag1901
ag3847
ag1903
ag3385
ag1905
ag1906
ag1907
ag1909
ag1910
ag3043
ag1914
ag3437
ag1917
ag1918
ag2704
ag1923
ag2298
ag1929
ag1930
ag3718
ag1932
ag1933
ag3529
ag2712
ag1935
ag1938
ag1939
ag3195
ag1943
ag1945
ag3722
ag1948
ag1950
ag1951
ag1952
ag1953
ag1954
ag1955
ag1957
ag1958
ag1961
ag2132
ag1963
ag1964
ag982
ag1970
ag1973
ag3766
ag1977
ag2446
ag1979
ag1982
ag1984
ag1985
ag1987
ag1989
ag1991
ag1993
ag3861
ag3896
ag2001
ag2002
ag2003
ag2004
ag2005
ag2553
ag2010
ag2011
ag2016
ag2017
ag2020
ag3165
ag2022
ag2023
ag2027
ag3176
ag2030
ag2032
ag186
ag27
ag40
ag2039
ag2041
ag2042
ag2044
ag372
ag2046
ag2047
ag2052
ag2054
ag2055
ag2057
ag2058
ag2060
ag2062
ag386
ag2065
ag354
ag3868
ag2071
ag233
ag2078
ag2080
ag3071
ag353
ag2083
ag2085
ag337
ag2090
ag2092
ag369
ag2095
ag2097
ag2826
ag2100
ag403
ag406
ag2105
ag2106
ag2110
ag2558
ag2115
ag2119
ag3183
ag2120
ag2121
ag2123
ag2124
ag2125
ag2126
ag3002
ag2133
ag2135
ag2136
ag3080
ag2141
ag2142
ag2143
ag2144
ag2146
ag2147
ag3448
ag2149
ag2151
ag116
ag2153
ag3987
ag2156
ag767
ag3755
ag2588
ag2163
ag2164
ag2165
ag2583
ag2169
ag2170
ag2171
ag2174
ag2568
ag2177
ag2179
ag2181
ag2184
ag2187
ag2188
ag2189
ag2191
ag2313
ag2196
ag2198
ag2199
ag2202
ag2203
ag2204
ag2207
ag1104
ag2209
ag2212
ag2213
ag2214
ag2215
ag795
ag2217
ag2218
ag2219
ag2220
ag2221
ag2223
ag1200
ag2717
ag2731
ag2229
ag2445
ag2234
ag2237
ag2240
ag2241
ag2242
ag2246
ag1747
ag2673
ag2250
ag1276
ag2253
ag2255
ag1409
ag2258
ag3102
ag2261
ag2263
ag2265
ag1457
ag2268
ag2270
ag2272
ag3996
ag2274
ag2275
ag2278
ag2280
ag2281
ag2282
ag2284
ag2285
ag2286
ag2289
ag14
ag2291
ag1595
ag2297
ag2300
ag2301
ag1612
ag2424
ag2306
ag2309
ag2312
ag2985
ag2317
ag2320
ag1621
ag2323
ag1749
ag2327
ag498
ag3875
ag2334
ag2339
ag2341
ag2342
ag3113
ag1475
ag2347
ag2349
ag2311
ag2351
ag2355
ag3021
ag2358
ag2359
ag1928
ag2363
ag2365
ag2366
ag1983
ag1988
ag2370
ag2371
ag2372
ag2373
ag2374
ag2376
ag2378
ag2379
ag2381
ag2382
ag2383
ag358
ag2385
ag2386
ag2387
ag3
ag3520
ag2392
ag3613
ag3635
ag2393
ag2395
ag2150
ag2401
ag2402
ag2403
ag2404
ag2405
ag2186
ag2409
ag2410
ag2411
ag2413
ag2414
ag3701
ag3123
ag2422
ag2423
ag2304
ag2426
ag3949
ag2429
ag1598
ag3452
ag2345
ag2435
ag2437
ag2375
ag2441
ag2406
ag2448
ag2449
ag2452
ag1807
ag2456
ag2458
ag2460
ag2462
ag2463
ag1731
ag2466
ag2467
ag2470
ag2472
ag2474
ag2476
ag2477
ag2574
ag2481
ag2482
ag2486
ag2488
ag2491
ag2493
ag1555
ag2494
ag2495
ag2496
ag2497
ag2499
ag2501
ag2504
ag2778
ag2780
ag2511
ag2801
ag2817
ag3196
ag2517
ag2518
ag2522
ag2524
ag2525
ag2487
ag2528
ag2531
ag2665
ag2936
ag1229
ag2540
ag2544
ag2543
ag2986
ag2545
ag2555
ag2557
ag3934
ag2560
ag2561
ag2562
ag2564
ag2570
ag2572
ag3185
ag2576
ag2577
ag2578
ag2579
ag3153
ag2581
ag2582
ag1450
ag2587
ag2811
ag2589
ag2590
ag2592
ag2593
ag2594
ag2596
ag2597
ag2601
ag3872
ag2763
ag2607
ag2608
ag2609
ag2611
ag2612
ag3408
ag2614
ag248
ag2615
ag2974
ag2616
ag2617
ag2619
ag2620
ag2622
ag2623
ag2624
ag2626
ag2630
ag2631
ag2634
ag2635
ag3918
ag2638
ag2639
ag1063
ag2644
ag2646
ag151
ag2649
ag2651
ag2652
ag2658
ag2662
ag2663
ag2664
ag1665
ag2667
ag2669
ag3779
ag2672
ag3170
ag2674
ag2677
ag2678
ag3577
ag2686
ag2688
ag2690
ag2691
ag2692
ag2693
ag2695
ag2696
ag2935
ag3912
ag2700
ag2702
ag3521
ag3432
ag2710
ag2711
ag3970
ag2713
ag2714
ag2716
ag3087
ag329
ag2723
ag2727
ag2728
ag2732
ag848
ag2734
ag32
ag2737
ag2738
ag43
ag2498
ag2750
ag2752
ag2753
ag2756
ag2757
ag1179
ag3428
ag2762
ag1585
ag191
ag2766
ag2767
ag2768
ag2769
ag2770
ag2771
ag227
ag3151
ag2775
ag2776
ag2777
ag2779
ag3530
ag2781
ag2784
ag2787
ag2788
ag2789
ag2792
ag2794
ag2795
ag407
ag412
ag3055
ag450
ag2804
ag1390
ag3413
ag464
ag2809
ag2810
ag482
ag325
ag2813
ag2814
ag2815
ag2816
ag3855
ag2820
ag547
ag2822
ag2824
ag2825
ag3677
ag2828
ag2829
ag3901
ag3315
ag3535
ag2833
ag194
ag628
ag2839
ag2840
ag2841
ag665
ag3371
ag2850
ag2851
ag504
ag2854
ag2855
ag2858
ag2859
ag2860
ag3727
ag2861
ag4019
ag3865
ag2867
ag2868
ag2869
ag2870
ag858
ag2338
ag2876
ag2878
ag2880
ag2881
ag2884
ag3443
ag2888
ag937
ag2892
ag2893
ag2895
ag2896
ag2899
ag2900
ag2902
ag2904
ag2905
ag2912
ag2914
ag2915
ag2917
ag2918
ag2919
ag2898
ag2921
ag2923
ag2451
ag2925
ag3833
ag2929
ag2930
ag2931
ag2933
ag2934
ag1240
ag2937
ag2943
ag2946
ag2948
ag2950
ag475
ag2956
ag2957
ag2958
ag2960
ag2464
ag2964
ag3829
ag2965
ag2966
ag2968
ag2969
ag2970
ag2973
ag1268
ag2977
ag2979
ag1722
ag2983
ag2984
ag2988
ag2991
ag3887
ag2996
ag2832
ag3295
ag3001
ag1645
ag3003
ag3006
ag3009
ag3010
ag1720
ag3289
ag3014
ag3015
ag3019
ag3020
ag3023
ag3025
ag2656
ag3030
ag3031
ag3032
ag1821
ag1919
ag3041
ag3924
ag3045
ag3046
ag3047
ag3049
ag3052
ag3054
ag4048
ag3058
ag3061
ag3062
ag3063
ag3064
ag3065
ag3066
ag1178
ag2725
ag3900
ag1180
ag3076
ag2193
ag3081
ag3083
ag2167
ag3088
ag979
ag3090
ag3091
ag3092
ag3094
ag3095
ag3098
ag3099
ag3100
ag3101
ag2259
ag3905
ag3104
ag3108
ag3110
ag3111
ag3112
ag3114
ag3117
ag1750
ag3120
ag3121
ag3122
ag2420
ag3126
ag3127
ag3128
ag3129
ag3131
ag503
ag3133
ag3138
ag3139
ag3141
ag3143
ag3144
ag3145
ag3149
ag617
ag3248
ag3154
ag3157
ag3163
ag3168
ag1949
ag3171
ag3175
ag3177
ag289
ag3181
ag3255
ag2201
ag3184
ag3186
ag3189
ag620
ag3197
ag3916
ag3199
ag2874
ag3201
ag3202
ag3203
ag2903
ag3205
ag3213
ag3214
ag3218
ag3223
ag3225
ag3226
ag3230
ag3039
ag3233
ag3078
ag3239
ag3240
ag3242
ag3243
ag3247
ag910
ag3158
ag3251
ag3254
ag684
ag3256
ag3258
ag3261
ag3262
ag524
ag1215
ag3265
ag3266
ag3274
ag3275
ag3277
ag3279
ag3281
ag203
ag3283
ag3284
ag3286
ag3287
ag3423
ag3290
ag3293
ag3294
ag3402
ag3296
ag3299
ag3301
ag3302
ag3303
ag3304
ag3306
ag3307
ag3477
ag4046
ag3316
ag122
ag3317
ag3318
ag3319
ag3320
ag3321
ag3322
ag3323
ag3324
ag3326
ag3328
ag3709
ag3330
ag3331
ag2076
ag3334
ag3335
ag3933
ag3337
ag3338
ag3341
ag3342
ag3343
ag3344
ag3346
ag3348
ag3352
ag3353
ag3355
ag936
ag3848
ag3363
ag3364
ag3365
ag3105
ag3367
ag3369
ag3370
ag3375
ag3378
ag3380
ag3381
ag3384
ag1920
ag3387
ag3390
ag3391
ag3393
ag3395
ag3396
ag3400
ag3401
ag3403
ag3405
ag25
ag3407
ag35
ag3948
ag3410
ag3929
ag3414
ag3415
ag3416
ag3417
ag3421
ag3422
ag3425
ag3426
ag1272
ag1528
ag3431
ag1306
ag3439
ag1541
ag1206
ag261
ag287
ag3447
ag2129
ag3449
ag3453
ag3454
ag3455
ag3456
ag1997
ag3459
ag1386
ag3462
ag3463
ag3465
ag1690
ag3468
ag3474
ag3475
ag766
ag3478
ag3717
ag3480
ag3022
ag3483
ag3489
ag465
ag3492
ag3493
ag593
ag3495
ag3497
ag3498
ag3499
ag3500
ag3501
ag642
ag2305
ag3505
ag3507
ag3508
ag3511
ag3514
ag3515
ag2380
ag1256
ag3731
ag3429
ag3523
ag2760
ag3525
ag3526
ag3527
ag820
ag3533
ag871
ag3536
ag3537
ag3538
ag3540
ag3541
ag3543
ag3544
ag3545
ag3546
ag3547
ag3552
ag1937
ag3557
ag3558
ag3559
ag3560
ag3561
ag3562
ag3564
ag1038
ag3567
ag1053
ag3569
ag3571
ag3881
ag3576
ag1101
ag3147
ag3580
ag3980
ag3785
ag3585
ag3586
ag3588
ag3589
ag3590
ag2440
ag363
ag3594
ag1216
ag3600
ag3602
ag3604
ag3606
ag3608
ag3610
ag1074
ag80
ag3374
ag3616
ag3617
ag3618
ag2473
ag2050
ag3625
ag3628
ag3629
ag1429
ag3633
ag2077
ag245
ag3636
ag3637
ag3638
ag3641
ag3642
ag3643
ag2759
ag3646
ag3119
ag3647
ag3648
ag3650
ag3652
ag3653
ag1259
ag1568
ag3659
ag3660
ag3663
ag4005
ag3664
ag3666
ag3667
ag3669
ag3670
ag1637
ag3673
ag1647
ag3675
ag3679
ag3680
ag3682
ag580
ag3684
ag1711
ag3686
ag3687
ag3689
ag3690
ag655
ag1331
ag3696
ag3699
ag3703
ag3707
ag3708
ag2703
ag3710
ag1876
ag3713
ag3714
ag1931
ag3719
ag3720
ag3721
ag2079
ag528
ag3726
ag3975
ag3730
ag3733
ag3734
ag294
ag3737
ag3738
ag3739
ag3741
ag3746
ag3747
ag3749
ag3750
ag3752
ag3753
ag2159
ag2161
ag3756
ag3759
ag3681
ag3763
ag3764
ag3767
ag3768
ag2909
ag3770
ag3771
ag3773
ag3776
ag3777
ag4008
ag3782
ag3700
ag3786
ag3788
ag3789
ag3790
ag3791
ag3795
ag3796
ag1802
ag3798
ag2122
ag2786
ag2490
ag3808
ag3809
ag3810
ag3812
ag3814
ag2538
ag3816
ag2554
ag3818
ag2500
ag3823
ag1962
ag3827
ag1512
ag3832
ag3834
ag2685
ag1275
ag1000
ag246
ag3846
ag2774
ag3849
ag3850
ag3631
ag3852
ag758
ag3857
ag3859
ag3844
ag146
ag2856
ag2862
ag2866
ag3867
ag2949
ag3871
ag2913
ag2243
ag3876
ag3877
ag3880
ag3882
ag3956
ag541
ag3888
ag3018
ag3893
ag3894
ag3056
ag468
ag4032
ag3361
ag1992
ag3904
ag3103
ag3906
ag3908
ag3909
ag2641
ag3914
ag3198
ag2699
ag3917
ag1133
ag3920
ag1191
ag3704
ag3305
ag3930
ag3336
ag3935
ag3940
ag3941
ag3942
ag3943
ag3945
ag3947
ag2415
ag444
ag3953
ag117
ag3476
ag3211
ag912
ag3959
ag3960
ag3962
ag3963
ag3964
ag3966
ag3969
ag3971
ag3556
ag3597
ag2505
ag305
ag3272
ag3990
ag3991
ag3995
ag3697
ag3997
ag3998
ag1808
ag4001
ag4003
ag4004
ag3760
ag4006
ag1812
ag4009
ag4010
ag4011
ag4012
ag60
ag4016
ag757
ag4023
ag4026
ag4027
ag4028
ag4029
ag4030
ag4031
ag2074
ag4033
ag4038
ag2806
ag4042
ag4044
ag2827
ag759
ag4049
ag4050
ag4051
ag2603
ag4053
ag4054
ag4055
aa(dp4057
S'gu'
p4058
I129
sg3062
I206
sS'gr'
p4059
I70
sg2582
I222
sS'ge'
p4060
I105
sS'ga'
p4061
I130
sS'go'
p4062
I67
sg1454
I209
sS'gm'
p4063
I224
sS'gl'
p4064
I126
sS'gi'
p4065
I117
sS'gh'
p4066
I198
sS'hy'
p4067
I207
sS'le'
p4068
I69
sS'22'
p4069
I225
sS're'
p4070
I33
sS'lo'
p4071
I36
sS'tu'
p4072
I112
sS'tr'
p4073
I58
sg266
I4
sS'li'
p4074
I32
sg2056
I8
sS'lu'
p4075
I147
sg1798
I226
sS'th'
p4076
I2
sS'ti'
p4077
I74
sg1993
I227
sS'te'
p4078
I83
sS'ta'
p4079
I80
sS'do'
p4080
I44
sS'ty'
p4081
I208
sS'yo'
p4082
I47
sS'di'
p4083
I46
sS'ya'
p4084
I200
sS'de'
p4085
I60
sS'ye'
p4086
I113
sS'da'
p4087
I72
sS'ja'
p4088
I152
sS'dy'
p4089
I210
sg1426
I201
sS'du'
p4090
I154
sS'dr'
p4091
I77
sS'od'
p4092
I239
sS'qu'
p4093
I132
sS"'h"
p4094
I228
sS"'l"
p4095
I151
sg802
I229
sg303
I191
sg3156
I211
sg2535
I230
sS'em'
p4096
I170
sS'el'
p4097
I167
sS'en'
p4098
I91
sS'ei'
p4099
I158
sS'ed'
p4100
I165
sS'eg'
p4101
I174
sS'ef'
p4102
I192
sS'ea'
p4103
I104
sS'ec'
p4104
I213
sg818
I231
sg3719
I179
sS'ey'
p4105
I95
sS'ex'
p4106
I100
sS'gn'
p4107
I223
sg3584
I175
sS'et'
p4108
I232
sS'ev'
p4109
I79
sS'ad'
p4110
I163
sS'es'
p4111
I186
sS"'r"
p4112
I164
sS'ru'
p4113
I120
sS'rp'
p4114
I233
sg3398
I176
sg1015
I234
sS'wo'
p4115
I41
sg1301
I235
sS'ra'
p4116
I116
sS'ro'
p4117
I96
sS'rh'
p4118
I215
sS'ri'
p4119
I115
sg3907
I61
sS'be'
p4120
I17
sS'we'
p4121
I37
sS'ba'
p4122
I45
sS'wa'
p4123
I11
sS'bl'
p4124
I84
sS'ju'
p4125
I101
sS'bo'
p4126
I68
sS'aj'
p4127
I236
sS'bi'
p4128
I114
sS'wi'
p4129
I35
sS'wh'
p4130
I26
sS'bu'
p4131
I42
sS'jo'
p4132
I63
sS'wr'
p4133
I135
sS'br'
p4134
I87
sS'je'
p4135
I159
sg2924
I137
sS'oo'
p4136
I237
sS'on'
p4137
I24
sS'ol'
p4138
I160
sg1875
I216
sS'oi'
p4139
I203
sg1878
I180
sg1879
I10
sS'oe'
p4140
I238
sS'la'
p4141
I50
sS'oc'
p4142
I187
sS'ob'
p4143
I181
sg863
I182
sg1627
I193
sg1885
I139
sS'iv'
p4144
I240
sS'tw'
p4145
I118
sS'ow'
p4146
I161
sS'ov'
p4147
I124
sS'ou'
p4148
I71
sS'ot'
p4149
I149
sS'os'
p4150
I241
sS'or'
p4151
I88
sS'op'
p4152
I131
sS'ci'
p4153
I162
sS'ch'
p4154
I92
sS'co'
p4155
I21
sS'cl'
p4156
I55
sg2300
I242
sS'ca'
p4157
I23
sS'ce'
p4158
I171
sS'cr'
p4159
I76
sS"'b"
p4160
I243
sS'cu'
p4161
I133
sg383
I1
sS'pr'
p4162
I81
sS'ps'
p4163
I217
sg2443
I9
sg2701
I168
sS'pu'
p4164
I106
sS'eu'
p4165
I244
sg3952
I204
sg648
I3
sS'pa'
p4166
I59
sS'pe'
p4167
I86
sS'ph'
p4168
I169
sS'pi'
p4169
I123
sS'po'
p4170
I109
sS'pl'
p4171
I93
sS'ir'
p4172
I183
sS'sy'
p4173
I194
sg698
I14
sS'hi'
p4174
I16
sS'ho'
p4175
I49
sS'hm'
p4176
I245
sS'ha'
p4177
I15
sS'$3'
p4178
I246
sS'he'
p4179
I7
sS'me'
p4180
I28
sS'oa'
p4181
I199
sS'ji'
p4182
I166
sS'ma'
p4183
I43
sg1455
I218
sS'ut'
p4184
I195
sS'mo'
p4185
I40
sS'mi'
p4186
I82
sg2989
I75
sS'us'
p4187
I127
sS'ur'
p4188
I188
sS'mu'
p4189
I121
sS'un'
p4190
I97
sg2994
I219
sg173
I172
sS'au'
p4191
I184
sS'ug'
p4192
I247
sg174
I18
sS'sq'
p4193
I189
sS'il'
p4194
I212
sS'va'
p4195
I144
sS'ac'
p4196
I128
sS'ab'
p4197
I85
sS've'
p4198
I155
sS'ag'
p4199
I94
sS'af'
p4200
I142
sS'ai'
p4201
I148
sS'vi'
p4202
I107
sg1570
I65
sS'av'
p4203
I177
sS'am'
p4204
I102
sS'al'
p4205
I48
sS'an'
p4206
I6
sS'ap'
p4207
I108
sS'as'
p4208
I34
sS'ar'
p4209
I51
sS'im'
p4210
I134
sg1974
I38
sS'aw'
p4211
I125
sg706
I13
sS'ic'
p4212
I196
sS'id'
p4213
I190
sS'ig'
p4214
I185
sg709
I98
sg2230
I136
sS'ni'
p4215
I150
sS'eq'
p4216
I214
sS'4:'
p4217
I248
sS'no'
p4218
I31
sg3778
I178
sS'na'
p4219
I143
sg453
I66
sS'ne'
p4220
I73
sg2239
I0
sS'vo'
p4221
I138
sS'er'
p4222
I202
sS'nu'
p4223
I173
sS'10'
p4224
I205
sS"'v"
p4225
I153
sS'fr'
p4226
I39
sg975
I53
sg976
I62
sS'fu'
p4227
I119
sg978
I249
sS'9:'
p4228
I250
sS'ox'
p4229
I251
sS'vu'
p4230
I220
sS'fa'
p4231
I54
sS"'e"
p4232
I252
sS'<e'
p4233
I27
sS"'c"
p4234
I221
sS'fe'
p4235
I56
sS'11'
p4236
I253
sS'fi'
p4237
I52
sg989
I145
sS'hu'
p4238
I122
sS'fl'
p4239
I110
sS'7:'
p4240
I254
sS'fo'
p4241
I25
sg2262
I12
sS'um'
p4242
I197
sS'ka'
p4243
I146
sg3045
I255
sS'ke'
p4244
I156
sg3804
I5
sS'ki'
p4245
I111
sS'sp'
p4246
I90
sS'sw'
p4247
I141
sS'kn'
p4248
I78
sS'su'
p4249
I64
sS'st'
p4250
I19
sS'sk'
p4251
I140
sS'si'
p4252
I57
sS'sh'
p4253
I22
sS'so'
p4254
I20
sS'sn'
p4255
I157
sS'sm'
p4256
I89
sS'sl'
p4257
I99
sS'sc'
p4258
I103
sS'sa'
p4259
I29
sS'se'
p4260
I30
sa(lp4261
g2239
ag383
ag4076
ag648
ag266
ag3804
ag4206
ag4179
ag2056
ag2443
ag1879
ag4123
ag2262
ag706
ag698
ag4177
ag4174
ag4120
ag174
ag4250
ag4254
ag4155
ag4253
ag4157
ag4137
ag4241
ag4130
ag4233
ag4180
ag4259
ag4260
ag4218
ag4074
ag4070
ag4208
ag4129
ag4071
ag4121
ag1974
ag4226
ag4185
ag4115
ag4131
ag4183
ag4080
ag4122
ag4083
ag4082
ag4205
ag4175
ag4141
ag4209
ag4237
ag975
ag4231
ag4156
ag4235
ag4252
ag4073
ag4166
ag4085
ag3907
ag976
ag4132
ag4249
ag1570
ag453
ag4062
ag4126
ag4068
ag4059
ag4148
ag4087
ag4220
ag4077
ag2989
ag4159
ag4091
ag4248
ag4109
ag4079
ag4162
ag4186
ag4078
ag4124
ag4197
ag4167
ag4134
ag4151
ag4256
ag4246
ag4098
ag4154
ag4171
ag4199
ag4105
ag4117
ag4190
ag709
ag4257
ag4106
ag4125
ag4204
ag4258
ag4103
ag4060
ag4164
ag4202
ag4207
ag4170
ag4239
ag4245
ag4072
ag4086
ag4128
ag4119
ag4116
ag4065
ag4145
ag4227
ag4113
ag4189
ag4238
ag4169
ag4147
ag4211
ag4064
ag4187
ag4196
ag4058
ag4061
ag4152
ag4093
ag4161
ag4210
ag4133
ag2230
ag2924
ag4221
ag1885
ag4251
ag4247
ag4200
ag4219
ag4195
ag989
ag4243
ag4075
ag4201
ag4149
ag4215
ag4095
ag4088
ag4225
ag4090
ag4198
ag4244
ag4255
ag4099
ag4135
ag4138
ag4146
ag4153
ag4110
ag4112
ag4100
ag4182
ag4097
ag2701
ag4168
ag4096
ag4158
ag173
ag4223
ag4101
ag3584
ag3398
ag4203
ag3778
ag3719
ag1878
ag4143
ag863
ag4172
ag4191
ag4214
ag4111
ag4142
ag4188
ag4193
ag4213
ag303
ag4102
ag1627
ag4173
ag4184
ag4212
ag4242
ag4066
ag4181
ag4084
ag1426
ag4222
ag4139
ag3952
ag4224
ag3062
ag4067
ag4081
ag1454
ag4089
ag3156
ag4194
ag4104
ag4216
ag4118
ag1875
ag4163
ag1455
ag2994
ag4230
ag4234
ag2582
ag4107
ag4063
ag4069
ag1798
ag1993
ag4094
ag802
ag2535
ag818
ag4108
ag4114
ag1015
ag1301
ag4127
ag4136
ag4140
ag4092
ag4144
ag4150
ag2300
ag4160
ag4165
ag4176
ag4178
ag4192
ag4217
ag978
ag4228
ag4229
ag4232
ag4236
ag4240
ag3045
aa(dp4262
S'alo'
p4263
I436
sg2031
I69
sS'alm'
p4264
I194
sS'rol'
p4265
I458
sS'edg'
p4266
I401
sS'edd'
p4267
I958
sS'roo'
p4268
I393
sS'sce'
p4269
I636
sS'roa'
p4270
I309
sS'rob'
p4271
I703
sS'ale'
p4272
I959
sS'sca'
p4273
I247
sS'sco'
p4274
I960
sg3062
I961
sg832
I781
sS'ris'
p4275
I599
sS'edu'
p4276
I962
sg3074
I264
sS'alw'
p4277
I296
sS'alt'
p4278
I555
sS'ros'
p4279
I704
sS'alr'
p4280
I455
sS'rou'
p4281
I410
sS'scr'
p4282
I173
sS'ora'
p4283
I1050
sS'ver'
p4284
I413
sS'aud'
p4285
I801
sg335
I736
sS'ali'
p4286
I461
sS'icy'
p4287
I964
sg2056
I8
sS'dia'
p4288
I806
sS'aur'
p4289
I705
sS'tai'
p4290
I706
sS'ren'
p4291
I967
sg2992
I707
sS'hee'
p4292
I867
sS'veh'
p4293
I802
sS'vei'
p4294
I803
sS"'ca"
p4295
I968
sS'roc'
p4296
I969
sS'smi'
p4297
I178
sS'ene'
p4298
I724
sg2068
I222
sS'fas'
p4299
I486
sS'umb'
p4300
I708
sS'fav'
p4301
I804
sS'fat'
p4302
I279
sS'fau'
p4303
I970
sS'wak'
p4304
I637
sS'fak'
p4305
I841
sS'fai'
p4306
I334
sS'fan'
p4307
I971
sS'fal'
p4308
I522
sg339
I111
sS'fab'
p4309
I972
sS'fac'
p4310
I81
sS'rad'
p4311
I664
sS'sly'
p4312
I973
sS'tri'
p4313
I248
sS'dim'
p4314
I593
sS'din'
p4315
I297
sS'gue'
p4316
I639
sS'wac'
p4317
I1203
sg1054
I65
sS'die'
p4318
I396
sS'dif'
p4319
I488
sS'dig'
p4320
I805
sS'tre'
p4321
I102
sS'eve'
p4322
I55
sg3118
I280
sS'dep'
p4323
I416
sg3411
I217
sg1061
I523
sS'upw'
p4324
I556
sg1064
I254
sS'ree'
p4325
I594
sS'tru'
p4326
I215
sS'ups'
p4327
I975
sS'dir'
p4328
I500
sS'dis'
p4329
I103
sS'ass'
p4330
I737
sS'cap'
p4331
I710
sS'tel'
p4332
I311
sS'tem'
p4333
I595
sS'ten'
p4334
I524
sS'tea'
p4335
I224
sS'tec'
p4336
I977
sg403
I978
sS'tee'
p4337
I174
sS'tug'
p4338
I979
sS'7:3'
p4339
I1007
sS'scu'
p4340
I808
sS'dev'
p4341
I809
sS'sni'
p4342
I980
sg2955
I874
sS'ter'
p4343
I640
sg69
I982
sS'ave'
p4344
I768
sS'suf'
p4345
I712
sS'sud'
p4346
I202
sS'suc'
p4347
I249
sS'sub'
p4348
I713
sS'nei'
p4349
I714
sg2116
I250
sS'sum'
p4350
I983
sS'nee'
p4351
I225
sS'abl'
p4352
I641
sS'nec'
p4353
I642
sS'abo'
p4354
I66
sg2573
I1095
sS'abr'
p4355
I984
sS'abs'
p4356
I780
sS'sus'
p4357
I557
sS'sur'
p4358
I123
sS'nex'
p4359
I371
sS'sup'
p4360
I335
sS'nev'
p4361
I186
sg86
I203
sg87
I985
sg1021
I812
sS'ner'
p4362
I643
sS'nes'
p4363
I986
sS'fuc'
p4364
I621
sS'mee'
p4365
I644
sS'lea'
p4366
I130
sS'mea'
p4367
I226
sS'flo'
p4368
I390
sS'lef'
p4369
I216
sS'leg'
p4370
I239
sS'mem'
p4371
I645
sS'mel'
p4372
I716
sS'men'
p4373
I462
sS'lem'
p4374
I987
sS'len'
p4375
I558
sg606
I988
sg101
I336
sS'les'
p4376
I489
sS'let'
p4377
I234
sS'mes'
p4378
I596
sS'mer'
p4379
I205
sg1714
I1160
sS'vul'
p4380
I897
sg105
I813
sS'mex'
p4381
I991
sg1024
I992
sg1114
I512
sg1115
I235
sS'ref'
p4382
I487
sS'arc'
p4383
I1066
sS'glo'
p4384
I559
sS'gla'
p4385
I187
sS'bor'
p4386
I717
sS'bos'
p4387
I560
sS'bot'
p4388
I349
sS'bou'
p4389
I561
sS'bow'
p4390
I914
sS'dri'
p4391
I131
sS'boi'
p4392
I814
sS'bol'
p4393
I994
sg3846
I1223
sS'dro'
p4394
I274
sS'boo'
p4395
I195
sS'dra'
p4396
I298
sS'boa'
p4397
I490
sg2796
I815
sS'bod'
p4398
I299
sS'glu'
p4399
I995
sS'vib'
p4400
I996
sS'vic'
p4401
I162
sS'wid'
p4402
I357
sS'wic'
p4403
I997
sS'vig'
p4404
I998
sS'vie'
p4405
I817
sS'win'
p4406
I139
sS'app'
p4407
I93
sS'wil'
p4408
I300
sS'vio'
p4409
I491
sS'bro'
p4410
I322
sS'qui'
p4411
I206
sS'wit'
p4412
I28
sS'wis'
p4413
I818
sS'apo'
p4414
I999
sS'bri'
p4415
I323
sS'org'
p4416
I739
sS'bre'
p4417
I148
sS'apa'
p4418
I647
sS'sch'
p4419
I459
sS'wiz'
p4420
I947
sS'bra'
p4421
I438
sg3837
I819
sS'cha'
p4422
I176
sS'use'
p4423
I301
sS'fee'
p4424
I87
sS'eye'
p4425
I70
sS'che'
p4426
I281
sS'usa'
p4427
I820
sS'fea'
p4428
I308
sS'fen'
p4429
I719
sS'chi'
p4430
I312
sS'fel'
p4431
I149
sS'twi'
p4432
I451
sg2173
I150
sS'usi'
p4433
I648
sS'cho'
p4434
I439
sg3216
I196
sS'usu'
p4435
I686
sS'fer'
p4436
I720
sg3425
I1049
sS'vom'
p4437
I631
sS'det'
p4438
I649
sS'asl'
p4439
I876
sS'rit'
p4440
I822
sS'gav'
p4441
I721
sS'exe'
p4442
I1006
sS'dai'
p4443
I823
sg698
I11
sS'ate'
p4444
I824
sS'mim'
p4445
I1074
sS'ooz'
p4446
I1008
sg1035
I24
sS'wro'
p4447
I498
sS'cas'
p4448
I414
sg1188
I54
sS'der'
p4449
I1009
sS'des'
p4450
I104
sS'flu'
p4451
I638
sS'cav'
p4452
I525
sS'cau'
p4453
I282
sS'cat'
p4454
I337
sS'fli'
p4455
I492
sS'cai'
p4456
I109
sS'del'
p4457
I600
sg1194
I88
sS'cam'
p4458
I197
sS'cal'
p4459
I134
sS'fla'
p4460
I265
sS'dea'
p4461
I140
sS'deb'
p4462
I1010
sS'dec'
p4463
I646
sg174
I13
sS'dee'
p4464
I251
sS'def'
p4465
I650
sS'deg'
p4466
I826
sS'tat'
p4467
I651
sS"'cl"
p4468
I1114
sS'ach'
p4469
I1011
sS'tap'
p4470
I827
sS'tar'
p4471
I175
sS'tas'
p4472
I828
sS'cag'
p4473
I1165
sS'spr'
p4474
I493
sS'tax'
p4475
I1012
sS'spu'
p4476
I829
sS'ann'
p4477
I830
sS'spi'
p4478
I463
sS'spl'
p4479
I494
sS'tab'
p4480
I339
sS'spo'
p4481
I338
sS'tal'
p4482
I359
sS'spa'
p4483
I464
sS'tan'
p4484
I831
sS'spe'
p4485
I188
sS'tak'
p4486
I198
sg2230
I158
sg3276
I832
sS'enc'
p4487
I833
sS'end'
p4488
I177
sS'hei'
p4489
I550
sS'sit'
p4490
I303
sS'hon'
p4491
I725
sS'hoo'
p4492
I373
sS'hol'
p4493
I340
sS'hom'
p4494
I252
sS'eno'
p4495
I266
sS'sic'
p4496
I441
sS'how'
p4497
I135
sg2239
I0
sS'hou'
p4498
I151
sS'hor'
p4499
I313
sS'hos'
p4500
I601
sS'hop'
p4501
I495
sS'sid'
p4502
I189
sS'aft'
p4503
I207
sg170
I834
sg3968
I835
sS'sin'
p4504
I314
sS'sim'
p4505
I528
sS'sil'
p4506
I324
sS'exu'
p4507
I879
sS'sis'
p4508
I653
sS'lan'
p4509
I602
sS'mar'
p4510
I283
sS'mat'
p4511
I496
sg1233
I727
sS'sna'
p4512
I372
sS'may'
p4513
I315
sS'sno'
p4514
I836
sS'ost'
p4515
I1018
sS'lab'
p4516
I1019
sS'lac'
p4517
I837
sS'adj'
p4518
I1169
sS'mad'
p4519
I141
sS'mag'
p4520
I838
sS'ove'
p4521
I114
sS'lat'
p4522
I325
sS'lau'
p4523
I166
sS'mak'
p4524
I267
sS'law'
p4525
I839
sS'lap'
p4526
I840
sS'mal'
p4527
I1020
sS'lar'
p4528
I228
sS'las'
p4529
I305
sg2262
I10
sS'ide'
p4530
I632
sS'pag'
p4531
I1030
sS'lai'
p4532
I974
sS'ani'
p4533
I842
sS'eng'
p4534
I440
sS'dyn'
p4535
I1013
sS'obs'
p4536
I844
sg1257
I68
sS'siz'
p4537
I562
sS'gho'
p4538
I728
sS'egg'
p4539
I531
sS'enj'
p4540
I652
sS'soa'
p4541
I1198
sg3282
I532
sS'veg'
p4542
I1021
sS'fam'
p4543
I466
sS'itc'
p4544
I1022
sS'sob'
p4545
I729
sS'bey'
p4546
I1118
sg1589
I1023
sS'vai'
p4547
I845
sS'its'
p4548
I80
sS'nib'
p4549
I1024
sS'fir'
p4550
I142
sS'fis'
p4551
I210
sS'clo'
p4552
I124
sS'fiv'
p4553
I497
sS'cli'
p4554
I442
sS'fit'
p4555
I654
sS'wra'
p4556
I563
sS'tyr'
p4557
I906
sS'cle'
p4558
I63
sS'fix'
p4559
I730
sg1290
I450
sS'nin'
p4560
I722
sg266
I4
sS'wri'
p4561
I374
sS'imp'
p4562
I427
sS'jit'
p4563
I846
sS'ens'
p4564
I1017
sS'fif'
p4565
I1027
sS'fig'
p4566
I533
sS'fie'
p4567
I606
sS'sig'
p4568
I167
sS'fin'
p4569
I95
sS'fil'
p4570
I378
sS'eur'
p4571
I1028
sg3349
I132
sS'non'
p4572
I1029
sS'noi'
p4573
I418
sS'cea'
p4574
I847
sS'upo'
p4575
I848
sS'nod'
p4576
I376
sS'dam'
p4577
I655
sS'dan'
p4578
I656
sS'cel'
p4579
I916
sS'shr'
p4580
I508
sS'nob'
p4581
I849
sS'dau'
p4582
I732
sS'daw'
p4583
I850
sS'dap'
p4584
I851
sS'cer'
p4585
I733
sS'dar'
p4586
I268
sS'das'
p4587
I852
sS'not'
p4588
I51
sS'nov'
p4589
I1031
sg1315
I94
sS'day'
p4590
I143
sS'nor'
p4591
I605
sS'shu'
p4592
I445
sS'4:3'
p4593
I1178
sS'eli'
p4594
I1172
sS'tro'
p4595
I658
sS'env'
p4596
I853
sS'emb'
p4597
I1033
sg303
I660
sS'hil'
p4598
I1035
sS'tra'
p4599
I214
sS'afr'
p4600
I1036
sS'eva'
p4601
I744
sg1334
I1196
sS'gui'
p4602
I579
sg1338
I1038
sS'oun'
p4603
I1039
sS'lam'
p4604
I854
sS'gle'
p4605
I1158
sS'nap'
p4606
I955
sS'fad'
p4607
I709
sS'mas'
p4608
I607
sg1058
I775
sS'sne'
p4609
I1204
sg1346
I735
sS'ifi'
p4610
I1037
sg3392
I564
sS'out'
p4611
I49
sS'gol'
p4612
I856
sS'goo'
p4613
I304
sS'gon'
p4614
I284
sS'goi'
p4615
I240
sg3398
I534
sS'bag'
p4616
I419
sS'blu'
p4617
I285
sS'res'
p4618
I253
sS'rep'
p4619
I444
sS'lak'
p4620
I659
sS'rev'
p4621
I565
sS'ret'
p4622
I360
sS'gob'
p4623
I857
sS'smo'
p4624
I499
sS'lad'
p4625
I112
sS'blo'
p4626
I154
sS'bli'
p4627
I566
sS'reo'
p4628
I858
sS'rel'
p4629
I310
sS'rem'
p4630
I190
sS'ble'
p4631
I521
sS'rec'
p4632
I316
sS'sme'
p4633
I269
sS'rea'
p4634
I60
sS'bla'
p4635
I241
sS'reg'
p4636
I420
sS'sma'
p4637
I233
sS'she'
p4638
I29
sS'pul'
p4639
I223
sS'pum'
p4640
I1042
sS'pun'
p4641
I1043
sS'giv'
p4642
I433
sS'pud'
p4643
I1044
sS'pub'
p4644
I860
sS'ech'
p4645
I861
sS'asc'
p4646
I711
sS'loa'
p4647
I608
sS'que'
p4648
I535
sS'puz'
p4649
I1046
sS'ori'
p4650
I738
sS'ask'
p4651
I116
sS'fle'
p4652
I394
sS'asi'
p4653
I1002
sS'syl'
p4654
I863
sS'orb'
p4655
I1048
sS'div'
p4656
I807
sS'pur'
p4657
I598
sS'pus'
p4658
I358
sg338
I1051
sg556
I758
sS'her'
p4659
I20
sS'iss'
p4660
I740
sg2162
I397
sS'cus'
p4661
I687
sS'att'
p4662
I468
sg364
I786
sS'bai'
p4663
I342
sg218
I609
sg173
I501
sS'laz'
p4664
I1053
sS'onl'
p4665
I152
sg2300
I1054
sS'onc'
p4666
I375
sg1406
I74
sS'mai'
p4667
I603
sg1409
I1055
sS'art'
p4668
I1111
sS'onw'
p4669
I865
sS'ont'
p4670
I446
sg383
I1
sS'jer'
p4671
I1057
sg2443
I7
sS'jew'
p4672
I866
sS'gif'
p4673
I864
sS'tor'
p4674
I502
sS'tos'
p4675
I868
sS'top'
p4676
I567
sS'equ'
p4677
I869
sS'tow'
p4678
I242
sS'tot'
p4679
I662
sS'tou'
p4680
I317
sg3521
I1058
sS'jea'
p4681
I447
sS'ton'
p4682
I448
sS'too'
p4683
I79
sS'tol'
p4684
I286
sS'tom'
p4685
I610
sg1246
I67
sS'jen'
p4686
I1060
sS'tog'
p4687
I568
sS'tod'
p4688
I570
sS'low'
p4689
I536
sS'ent'
p4690
I604
sS'hug'
p4691
I377
sg1925
I465
sS'hum'
p4692
I421
sS'hun'
p4693
I361
sS'jee'
p4694
I1062
sg1437
I1063
sS'pon'
p4695
I1137
sS'var'
p4696
I663
sS'hur'
p4697
I569
sS'hus'
p4698
I870
sS'sex'
p4699
I472
sg2582
I1064
sS'ste'
p4700
I179
sS'beh'
p4701
I287
sS'bei'
p4702
I471
sS'ben'
p4703
I379
sS'sta'
p4704
I36
sS'bel'
p4705
I270
sS'bec'
p4706
I125
sS'raz'
p4707
I1065
sS'bea'
p4708
I288
sS'bef'
p4709
I136
sS'sti'
p4710
I126
sg3491
I537
sS'bee'
p4711
I61
sS'stu'
p4712
I168
sS'sed'
p4713
I1005
sS'jel'
p4714
I1061
sS'str'
p4715
I78
sS'ber'
p4716
I1067
sS'bes'
p4717
I503
sS'sty'
p4718
I872
sS'bet'
p4719
I208
sS'pre'
p4720
I137
sS'ane'
p4721
I873
sS'sai'
p4722
I38
sS'ang'
p4723
I504
sS'pra'
p4724
I745
sS'san'
p4725
I289
sS'sam'
p4726
I271
sS'sal'
p4727
I612
sg433
I505
sS'sab'
p4728
I1068
sS'pro'
p4729
I133
sS'ano'
p4730
I398
sS'pri'
p4731
I362
sS'saf'
p4732
I746
sS'rai'
p4733
I529
sg1480
I682
sg2741
I747
sg1481
I326
sS'gia'
p4734
I611
sS'rar'
p4735
I1070
sS'boh'
p4736
I1161
sS'rap'
p4737
I748
sS'ans'
p4738
I452
sS'sar'
p4739
I1071
sg1485
I1072
sg1486
I117
sg1487
I107
sS'sau'
p4740
I1073
sg1489
I327
sg2783
I749
sS'lie'
p4741
I875
sS'lif'
p4742
I272
sS'lig'
p4743
I290
sS'bic'
p4744
I1045
sS'mil'
p4745
I291
sS'min'
p4746
I144
sS'lim'
p4747
I613
sS'lin'
p4748
I453
sS'lio'
p4749
I1076
sg453
I37
sS'mid'
p4750
I614
sS'mig'
p4751
I399
sS'lik'
p4752
I43
sS'lit'
p4753
I160
sg3731
I1077
sS'liv'
p4754
I400
sS'lip'
p4755
I506
sS'liq'
p4756
I665
sS'lis'
p4757
I380
sS'mis'
p4758
I422
sS'mir'
p4759
I539
sS'eff'
p4760
I700
sS'rhy'
p4761
I1078
sS'whe'
p4762
I46
sS'hyp'
p4763
I877
sg3162
I669
sS'wha'
p4764
I62
sS'imi'
p4765
I1025
sS'oft'
p4766
I615
sg3532
I127
sS'whi'
p4767
I99
sS'awo'
p4768
I1080
sS'kar'
p4769
I237
sS'awk'
p4770
I1081
sS'gna'
p4771
I1116
sS'anx'
p4772
I878
sS"'bu"
p4773
I1015
sS'rhe'
p4774
I1083
sg3542
I343
sS'awa'
p4775
I118
sg3543
I1084
sS'doi'
p4776
I666
sS'don'
p4777
I145
sS'exc'
p4778
I302
sS'dol'
p4779
I507
sS'exa'
p4780
I469
sS'reb'
p4781
I859
sS'ira'
p4782
I1119
sS'slu'
p4783
I789
sS'exh'
p4784
I750
sS'doe'
p4785
I328
sS'doz'
p4786
I751
sS'lux'
p4787
I1087
sS'ext'
p4788
I752
sS'bui'
p4789
I792
sS'exp'
p4790
I209
sS'abi'
p4791
I1088
sS'caw'
p4792
I1089
sg492
I956
sS'dow'
p4793
I119
sS'dot'
p4794
I1090
sS'dou'
p4795
I753
sS'aba'
p4796
I1079
sS'jut'
p4797
I1091
sS'ugl'
p4798
I1092
sS'toa'
p4799
I871
sg4032
I1226
sS'9:3'
p4800
I1093
sS'roi'
p4801
I1001
sS'buc'
p4802
I1208
sS'nea'
p4803
I423
sS'inn'
p4804
I765
sS'och'
p4805
I1094
sg3578
I880
sS'wol'
p4806
I1032
sg3584
I553
sS'occ'
p4807
I754
sS'sto'
p4808
I64
sS'adv'
p4809
I928
sg1301
I1014
sg2544
I1098
sS'jan'
p4810
I1099
sS'won'
p4811
I470
sS'jag'
p4812
I1100
sg1557
I1059
sS'jac'
p4813
I381
sS'imm'
p4814
I731
sS'ges'
p4815
I881
sg527
I128
sS'hir'
p4816
I882
sg2584
I18
sS'hit'
p4817
I363
sS'wok'
p4818
I883
sg1562
I106
sS'lug'
p4819
I1102
sS'oce'
p4820
I1096
sS'gea'
p4821
I755
sS'hid'
p4822
I530
sS'dyi'
p4823
I1104
sS'hig'
p4824
I364
sg1426
I756
sS'hik'
p4825
I757
sS'den'
p4826
I715
sg2602
I30
sS'hin'
p4827
I1105
sg1455
I884
sS'eme'
p4828
I1106
sS'bat'
p4829
I395
sS'bau'
p4830
I1107
sg543
I402
sS'bas'
p4831
I382
sS'cru'
p4832
I191
sS'emo'
p4833
I1108
sg2610
I383
sS'emi'
p4834
I1109
sS'sha'
p4835
I180
sg550
I540
sS'cra'
p4836
I255
sS'bab'
p4837
I667
sS'bac'
p4838
I52
sS'cre'
p4839
I199
sS'ban'
p4840
I1110
sS'shi'
p4841
I192
sS'bal'
p4842
I885
sS'cri'
p4843
I467
sS'cro'
p4844
I403
sS'sho'
p4845
I58
sS'sev'
p4846
I306
sS'arr'
p4847
I668
sS'set'
p4848
I329
sS'ses'
p4849
I1056
sS'ser'
p4850
I616
sS'sep'
p4851
I886
sS'nut'
p4852
I1112
sS'beg'
p4853
I153
sS'seg'
p4854
I1113
sS'see'
p4855
I40
sS'num'
p4856
I541
sS'sec'
p4857
I200
sg2629
I86
sS'sea'
p4858
I218
sS'arg'
p4859
I825
sS'sen'
p4860
I236
sS'sel'
p4861
I404
sS'arl'
p4862
I887
sS'arm'
p4863
I181
sS'sei'
p4864
I888
sS'aro'
p4865
I84
sS'mut'
p4866
I889
sS'lur'
p4867
I1115
sS'lus'
p4868
I890
sS'mus'
p4869
I256
sS'mur'
p4870
I759
sS'wou'
p4871
I50
sS'unr'
p4872
I891
sS'irr'
p4873
I760
sg681
I811
sS'vas'
p4874
I1117
sg1011
I892
sS'wor'
p4875
I90
sS'wom'
p4876
I273
sg582
I670
sS'woo'
p4877
I893
sS'luc'
p4878
I443
sS'muc'
p4879
I344
sS'iro'
p4880
I894
sS'mum'
p4881
I895
sS'mul'
p4882
I990
sS'luk'
p4883
I1120
sS'kee'
p4884
I424
sS'lun'
p4885
I509
sS'wob'
p4886
I1121
sS'ima'
p4887
I257
sg590
I113
sS'jos'
p4888
I1122
sS'jou'
p4889
I896
sS'jig'
p4890
I966
sS'vag'
p4891
I761
sg3664
I1123
sS'tur'
p4892
I115
sS'upp'
p4893
I976
sg600
I1124
sS'bak'
p4894
I741
sS'wad'
p4895
I1202
sg3668
I572
sS'wre'
p4896
I526
sg3671
I45
sS'tun'
p4897
I1125
sg3672
I1126
sS'joh'
p4898
I671
sS'joi'
p4899
I620
sS'tub'
p4900
I573
sS'ket'
p4901
I1127
sS'jol'
p4902
I1128
sS'tue'
p4903
I1129
sS'kep'
p4904
I672
sS'unp'
p4905
I1130
sS'cop'
p4906
I384
sS'cos'
p4907
I762
sS'cor'
p4908
I182
sS'cou'
p4909
I56
sS'wee'
p4910
I163
sS'cow'
p4911
I673
sS'cov'
p4912
I542
sS'ill'
p4913
I810
sS'cob'
p4914
I1163
sS'coa'
p4915
I449
sS'una'
p4916
I674
sg1627
I684
sS'unc'
p4917
I617
sS'und'
p4918
I229
sS'une'
p4919
I899
sS'cof'
p4920
I425
sS'coi'
p4921
I1132
sS'uni'
p4922
I574
sS'eth'
p4923
I1133
sS'unk'
p4924
I900
sS'com'
p4925
I97
sS'col'
p4926
I120
sS'coo'
p4927
I346
sS'con'
p4928
I91
sg1468
I6
sS'moa'
p4929
I1134
sS'key'
p4930
I1135
sS'rag'
p4931
I1136
sS'pow'
p4932
I510
sS'pou'
p4933
I676
sS'por'
p4934
I901
sS'pos'
p4935
I474
sS'pop'
p4936
I618
sS'cla'
p4937
I406
sS'doc'
p4938
I1085
sS'poo'
p4939
I902
sS'pol'
p4940
I575
sS'pok'
p4941
I1227
sS'poi'
p4942
I426
sS'ele'
p4943
I1139
sg3708
I1140
sS'poc'
p4944
I475
sS'rac'
p4945
I543
sS'swi'
p4946
I677
sS'wes'
p4947
I921
sS'fra'
p4948
I476
sS'tuc'
p4949
I1141
sS'dul'
p4950
I1142
sS'dum'
p4951
I1143
sS'fre'
p4952
I219
sS'fic'
p4953
I1026
sS'swa'
p4954
I511
sS'fri'
p4955
I258
sS'fro'
p4956
I33
sS'haz'
p4957
I1144
sg648
I3
sg1474
I904
sS'yan'
p4958
I1145
sS'fru'
p4959
I678
sS'gma'
p4960
I1040
sS'dur'
p4961
I763
sS'dus'
p4962
I428
sS'dut'
p4963
I1146
sS'inv'
p4964
I797
sg1798
I1174
sS'oth'
p4965
I238
sg107
I527
sS'inw'
p4966
I907
sS'gaz'
p4967
I679
sS'gli'
p4968
I544
sg662
I576
sS'gat'
p4969
I619
sS'gas'
p4970
I545
sS'gar'
p4971
I347
sS'gen'
p4972
I477
sg4040
I680
sS'hmm'
p4973
I1148
sS'uns'
p4974
I1149
sS'pis'
p4975
I1150
sS'eri'
p4976
I993
sS'clu'
p4977
I546
sS'gag'
p4978
I908
sS'unt'
p4979
I348
sg1969
I157
sS'cac'
p4980
I909
sS'fut'
p4981
I1151
sS'adm'
p4982
I764
sS'fur'
p4983
I292
sS'eit'
p4984
I478
sS'enr'
p4985
I1229
sS'hat'
p4986
I681
sS'fuz'
p4987
I1152
sS'rat'
p4988
I341
sS'hoa'
p4989
I1153
sg677
I243
sS'fug'
p4990
I905
sS'oes'
p4991
I1154
sS'slo'
p4992
I259
sS'sli'
p4993
I204
sS'eig'
p4994
I547
sg2749
I513
sS'sle'
p4995
I385
sS'ful'
p4996
I429
sS'gin'
p4997
I945
sS'sla'
p4998
I577
sS'ini'
p4999
I1155
sS'vod'
p5000
I1162
sS'bin'
p5001
I1176
sS'voc'
p5002
I1156
sS'riv'
p5003
I1157
sS'dru'
p5004
I597
sg1570
I41
sS'voi'
p5005
I232
sS'rip'
p5006
I548
sg1454
I898
sS'rin'
p5007
I766
sS'pip'
p5008
I912
sS'avo'
p5009
I767
sS'jok'
p5010
I1159
sg706
I14
sS'rif'
p5011
I913
sS'rig'
p5012
I227
sg191
I622
sS'rib'
p5013
I769
sS'ava'
p5014
I1052
sg709
I75
sS'pap'
p5015
I514
sS'cul'
p5016
I1034
sS'par'
p5017
I155
sS'pas'
p5018
I169
sS'pat'
p5019
I430
sS'pau'
p5020
I578
sS'pav'
p5021
I770
sg3778
I549
sg1724
I683
sS'coc'
p5022
I1131
sS'sav'
p5023
I538
sS'req'
p5024
I1041
sS'pac'
p5025
I919
sS'pad'
p5026
I1164
sg3785
I571
sg2852
I307
sS'pah'
p5027
I771
sS'pai'
p5028
I211
sS'pal'
p5029
I515
sS'pan'
p5030
I623
sS'ank'
p5031
I915
sg1738
I734
sS'pho'
p5032
I624
sS'bon'
p5033
I415
sS'pru'
p5034
I1069
sS'kis'
p5035
I772
sS'nic'
p5036
I580
sS'nig'
p5037
I386
sS'sym'
p5038
I917
sS'kit'
p5039
I581
sS'phy'
p5040
I773
sS'kin'
p5041
I365
sS'kim'
p5042
I625
sS'kil'
p5043
I366
sS'kic'
p5044
I774
sS'phr'
p5045
I963
sg739
I407
sS'kno'
p5046
I82
sg3803
I96
sS'kni'
p5047
I516
sg3804
I5
sS'dre'
p5048
I345
sS'thu'
p5049
I626
sS'kne'
p5050
I156
sS'thr'
p5051
I57
sS'unm'
p5052
I1168
sS'tho'
p5053
I71
sS'thi'
p5054
I26
sg752
I2
sS'abd'
p5055
I1082
sS'mic'
p5056
I1075
sS'tha'
p5057
I16
sg2329
I855
sS'yel'
p5058
I387
sS'wif'
p5059
I918
sS'yea'
p5060
I275
sg4017
I954
sS'ahe'
p5061
I627
sg2156
I1170
sS'swo'
p5062
I723
sg1149
I1171
sg763
I551
sS'tis'
p5063
I920
sg764
I408
sS'sku'
p5064
I628
sS'hai'
p5065
I293
sS'wea'
p5066
I388
sS'cut'
p5067
I473
sS'hal'
p5068
I405
sS'cur'
p5069
I330
sS'han'
p5070
I85
sg616
I582
sS'wei'
p5071
I350
sS'hac'
p5072
I1173
sg770
I21
sS'wen'
p5073
I409
sS'eld'
p5074
I1138
sS'wel'
p5075
I276
sS'ske'
p5076
I903
sS'wer'
p5077
I76
sg3840
I454
sS'tio'
p5078
I776
sS'daz'
p5079
I1166
sg3843
I629
sS'hap'
p5080
I389
sS'els'
p5081
I479
sS'har'
p5082
I230
sg675
I231
sS'ski'
p5083
I245
sS'bru'
p5084
I922
sS'hav'
p5085
I47
sS'haw'
p5086
I1175
sS'opt'
p5087
I911
sg3371
I552
sS'opp'
p5088
I583
sS'bik'
p5089
I923
sS'amo'
p5090
I777
sS'mos'
p5091
I351
sS'mor'
p5092
I121
sS'amb'
p5093
I924
sS'mov'
p5094
I277
sS'mou'
p5095
I110
sS'mot'
p5096
I331
sS'ope'
p5097
I170
sS'moi'
p5098
I778
sS'psy'
p5099
I925
sS'moo'
p5100
I926
sS'mon'
p5101
I294
sg1814
I146
sS'ign'
p5102
I592
sS'amp'
p5103
I1177
sg2857
I332
sS'bir'
p5104
I517
sS'mod'
p5105
I927
sS'vir'
p5106
I688
sS'cen'
p5107
I1103
sS'vis'
p5108
I481
sS'gus'
p5109
I1179
sS'qua'
p5110
I933
sS'dun'
p5111
I816
sg1830
I260
sg3156
I929
sS'lic'
p5112
I630
sS'viv'
p5113
I1181
sS'tic'
p5114
I1182
sS'odo'
p5115
I981
sS'soi'
p5116
I743
sS'tie'
p5117
I930
sS'ush'
p5118
I1200
sg811
I333
sS'myt'
p5119
I1184
sg802
I1180
sS'wip'
p5120
I1000
sS'fue'
p5121
I931
sS'rot'
p5122
I460
sg818
I1187
sS'loc'
p5123
I942
sS'sug'
p5124
I932
sg1993
I1222
sS'11:'
p5125
I1188
sS'fou'
p5126
I212
sS'vol'
p5127
I1189
sS'for'
p5128
I19
sS'esp'
p5129
I934
sS'pet'
p5130
I584
sS'chr'
p5131
I1003
sS'per'
p5132
I161
sS'gor'
p5133
I1191
sS'alu'
p5134
I1192
sS'foe'
p5135
I935
sS'pen'
p5136
I936
sS'peo'
p5137
I220
sS'esc'
p5138
I782
sS'foc'
p5139
I689
sS'fol'
p5140
I244
sS'pee'
p5141
I690
sS'fon'
p5142
I937
sS'foo'
p5143
I278
sS'orn'
p5144
I862
sS'pea'
p5145
I411
sg3907
I34
sS'pec'
p5146
I783
sg2908
I59
sS'plu'
p5147
I518
sS'rui'
p5148
I1193
sS'run'
p5149
I201
sS'rum'
p5150
I784
sS'rub'
p5151
I691
sS'ruf'
p5152
I785
sS'rud'
p5153
I989
sS'kan'
p5154
I938
sS'ple'
p5155
I318
sS'pla'
p5156
I108
sS'plo'
p5157
I1194
sS'rus'
p5158
I482
sg2924
I165
sS'pli'
p5159
I939
sS'emp'
p5160
I661
sS'acc'
p5161
I367
sg1873
I25
sS'obl'
p5162
I1195
sg1875
I940
sg2701
I412
sg1878
I585
sg1879
I9
sS'aci'
p5163
I787
sS'twe'
p5164
I718
sS'als'
p5165
I437
sS'nos'
p5166
I657
sg863
I586
sg201
I726
sS'acr'
p5167
I319
sS'acq'
p5168
I941
sS'act'
p5169
I587
sS'obv'
p5170
I788
sg2535
I1197
sS'doo'
p5171
I184
sS'fem'
p5172
I821
sg1892
I77
sg3759
I1004
sg3930
I1199
sg3932
I352
sS'sof'
p5173
I295
sg3729
I695
sS'swe'
p5174
I353
sS'som'
p5175
I42
sS'sol'
p5176
I432
sS'soo'
p5177
I483
sg878
I105
sS'sor'
p5178
I484
sS'sou'
p5179
I122
sS'yar'
p5180
I910
sg1015
I1016
sS'wan'
p5181
I98
sS'wal'
p5182
I100
sS'van'
p5183
I368
sS'gir'
p5184
I213
sS'wai'
p5185
I171
sS'hes'
p5186
I943
sS'vac'
p5187
I1201
sg3952
I742
sS'lon'
p5188
I159
sS'loo'
p5189
I39
sS'gig'
p5190
I944
sS'los'
p5191
I434
sS'gid'
p5192
I1205
sS'lov'
p5193
I354
sS'hea'
p5194
I44
sg897
I101
sS'lou'
p5195
I391
sS'hel'
p5196
I147
sS'wav'
p5197
I843
sS'wat'
p5198
I138
sg900
I15
sS'war'
p5199
I320
sS'chu'
p5200
I1206
sS'buz'
p5201
I692
sg3961
I588
sS'jud'
p5202
I790
sS'bur'
p5203
I589
sS'bus'
p5204
I435
sS'eac'
p5205
I261
sS'jui'
p5206
I946
sS'jun'
p5207
I791
sg3965
I31
sS'jum'
p5208
I1207
sS'jus'
p5209
I89
sS'urg'
p5210
I779
sS'bun'
p5211
I693
sS'bul'
p5212
I948
sS'bum'
p5213
I949
sS'bub'
p5214
I793
sS'rak'
p5215
I1186
sS'eas'
p5216
I392
sS'ear'
p5217
I262
sS'eat'
p5218
I456
sg3974
I12
sS'tum'
p5219
I1209
sS'cig'
p5220
I950
sS'aja'
p5221
I1210
sS'exi'
p5222
I794
sS'$30'
p5223
I1211
sS'dom'
p5224
I951
sS'cio'
p5225
I1212
sg2989
I53
sg2990
I369
sg2714
I1147
sg2991
I1213
sS'cir'
p5226
I795
sg1602
I355
sg2994
I952
sS'utt'
p5227
I796
sS'cit'
p5228
I457
sS'neg'
p5229
I1214
sS'unb'
p5230
I1185
sS'pil'
p5231
I590
sS'pin'
p5232
I694
sS'int'
p5233
I48
sg3719
I1215
sS'mys'
p5234
I193
sg3999
I356
sg1966
I83
sS'pie'
p5235
I417
sS'inr'
p5236
I1216
sS'ins'
p5237
I164
sg1970
I1217
sg1971
I23
sS'inh'
p5238
I1218
sg1974
I22
sg3760
I1219
sS'ind'
p5239
I519
sS'ine'
p5240
I798
sS'inf'
p5241
I554
sS'ing'
p5242
I633
sS'pit'
p5243
I591
sS'inc'
p5244
I520
sS'gru'
p5245
I953
sg4013
I246
sg1756
I72
sS'nak'
p5246
I696
sg2517
I1220
sS'uri'
p5247
I1086
sS'tip'
p5248
I685
sS'ped'
p5249
I1221
sS'tir'
p5250
I799
sS'nam'
p5251
I321
sg961
I697
sS'tim'
p5252
I73
sS'tin'
p5253
I431
sS'gre'
p5254
I185
sS'nav'
p5255
I1167
sS'unl'
p5256
I675
sS'nat'
p5257
I698
sS'gra'
p5258
I129
sS'gro'
p5259
I183
sS'you'
p5260
I27
sS'tig'
p5261
I480
sS'yor'
p5262
I699
sS'gri'
p5263
I263
sg975
I32
sg976
I35
sg1918
I1224
sg689
I1225
sg978
I1190
sS'abu'
p5264
I1101
sS'squ'
p5265
I634
sg1885
I172
sS'log'
p5266
I800
sS'hob'
p5267
I1228
sg989
I221
sS'<el'
p5268
I17
sS'<em'
p5269
I370
sg3042
I485
sS'oxy'
p5270
I1097
sS'aus'
p5271
I965
sg3045
I1183
sS'agi'
p5272
I1230
sS'ord'
p5273
I1047
sg3048
I635
sg486
I1231
sS'aga'
p5274
I92
sS'aff'
p5275
I957
sg327
I701
sS'uti'
p5276
I1232
sS'agr'
p5277
I702
sa(lp5278
g2239
ag383
ag752
ag648
ag266
ag3804
ag1468
ag2443
ag2056
ag1879
ag2262
ag698
ag3974
ag174
ag706
ag900
ag5057
ag5268
ag2584
ag5128
ag4659
ag770
ag1974
ag1971
ag1035
ag1873
ag5054
ag5260
ag4412
ag4638
ag2602
ag3965
ag975
ag4956
ag3907
ag976
ag4704
ag453
ag4722
ag5189
ag4855
ag1570
ag5175
ag4752
ag5194
ag3671
ag4762
ag5085
ag5233
ag4611
ag4871
ag4588
ag4838
ag2989
ag1188
ag4322
ag4909
ag5051
ag4845
ag2908
ag4634
ag4711
ag4764
ag4558
ag4808
ag1054
ag4354
ag1246
ag1257
ag2031
ag4425
ag5053
ag1756
ag5252
ag1406
ag709
ag5077
ag1892
ag4715
ag4683
ag4548
ag4310
ag5046
ag1966
ag4865
ag5070
ag2629
ag4424
ag1194
ag5209
ag4875
ag4928
ag5274
ag4407
ag1315
ag4569
ag3803
ag4925
ag5181
ag4767
ag5182
ag897
ag4321
ag4329
ag4450
ag878
ag1562
ag1487
ag5156
ag4456
ag5095
ag339
ag4625
ag590
ag4521
ag4892
ag4651
ag1486
ag4775
ag4793
ag4926
ag5092
ag5179
ag4358
ag4552
ag4706
ag4710
ag3532
ag527
ag5258
ag4366
ag4391
ag3349
ag4729
ag4459
ag4497
ag4709
ag4720
ag5198
ag4406
ag4461
ag4519
ag4550
ag4590
ag4746
ag4777
ag1814
ag5196
ag4417
ag4431
ag2173
ag4498
ag4665
ag4853
ag4626
ag5017
ag5050
ag1969
ag2230
ag5188
ag4753
ag5132
ag4401
ag4910
ag5237
ag2924
ag4523
ag4568
ag4712
ag5018
ag5097
ag5185
ag1885
ag4282
ag4337
ag4471
ag4422
ag4488
ag4297
ag4700
ag4835
ag4863
ag4908
ag5259
ag5171
ag5254
ag4361
ag4385
ag4485
ag4502
ag4630
ag4832
ag4841
ag5234
ag4264
ag4395
ag3216
ag4458
ag4486
ag4839
ag4857
ag5149
ag4346
ag86
ag4993
ag4379
ag4411
ag4503
ag4719
ag4790
ag4551
ag5028
ag5126
ag5184
ag4599
ag4326
ag4369
ag3411
ag4858
ag4952
ag5137
ag989
ag2068
ag4639
ag4335
ag4351
ag4367
ag5012
ag4528
ag4918
ag5082
ag675
ag5005
ag4637
ag4377
ag1115
ag4860
ag4769
ag4965
ag4370
ag4615
ag4635
ag4678
ag677
ag5140
ag5083
ag4013
ag4273
ag4313
ag4347
ag2116
ag4464
ag4494
ag4618
ag1064
ag4836
ag4869
ag4887
ag4955
ag4992
ag1830
ag5205
ag5217
ag5263
ag3074
ag4460
ag4495
ag4524
ag4586
ag4633
ag4705
ag4726
ag4742
ag4876
ag4394
ag5060
ag5075
ag5094
ag5143
ag4302
ag3118
ag4426
ag4453
ag4510
ag4614
ag4617
ag4684
ag4701
ag4708
ag4725
ag4743
ag4745
ag4983
ag5065
ag5101
ag5173
ag4277
ag4315
ag4396
ag4398
ag4408
ag4423
ag4778
ag4490
ag4613
ag4529
ag4846
ag2852
ag4428
ag4270
ag4629
ag4332
ag4430
ag4499
ag4504
ag4513
ag4632
ag4680
ag5155
ag5167
ag5199
ag5251
ag4410
ag4415
ag4506
ag4522
ag1481
ag1489
ag4785
ag4848
ag5069
ag5096
ag2857
ag811
ag4306
ag4360
ag101
ag4454
ag4481
ag4480
ag4493
ag4988
ag4663
ag3542
ag4879
ag5048
ag4927
ag4971
ag4979
ag4388
ag5071
ag5091
ag3932
ag5174
ag5193
ag1602
ag3999
ag4402
ag4658
ag4482
ag4622
ag4693
ag4731
ag4817
ag4824
ag5041
ag5043
ag5161
ag5183
ag2990
ag5269
ag4359
ag4512
ag4492
ag4561
ag4666
ag4576
ag4691
ag4570
ag4703
ag4757
ag4813
ag4831
ag2610
ag4906
ag4995
ag5037
ag5058
ag5066
ag5080
ag4368
ag5195
ag5216
ag4268
ag4652
ag4829
ag4318
ag2162
ag4730
ag4751
ag4754
ag4266
ag543
ag4844
ag4861
ag5068
ag4937
ag739
ag764
ag5073
ag4281
ag5145
ag2701
ag4284
ag4448
ag5033
ag4323
ag5235
ag4573
ag4616
ag4636
ag4692
ag4758
ag4803
ag4884
ag4920
ag4942
ag4562
ag4962
ag4996
ag5019
ag5253
ag5176
ag4642
ag5191
ag5204
ag4263
ag5165
ag4421
ag4434
ag4534
ag4496
ag4554
ag4878
ag4619
ag4592
ag4670
ag4681
ag4682
ag4915
ag1290
ag4432
ag4738
ag4748
ag3840
ag4280
ag5218
ag5228
ag4265
ag4419
ag5122
ag4286
ag4373
ag4478
ag4483
ag1925
ag4543
ag4843
ag4662
ag4780
ag4811
ag4702
ag4699
ag5067
ag4935
ag4944
ag4948
ag4972
ag4984
ag5081
ag5261
ag5108
ag5158
ag5177
ag5178
ag3042
ag4299
ag4382
ag4319
ag4376
ag4397
ag4409
ag4455
ag4474
ag4479
ag4501
ag4511
ag4553
ag4447
ag4624
ag4328
ag173
ag4674
ag4717
ag4723
ag433
ag4755
ag4779
ag4580
ag4885
ag4932
ag4954
ag1114
ag2749
ag5015
ag5029
ag5047
ag5104
ag5147
ag5239
ag5244
ag4631
ag4308
ag1061
ag4334
ag4452
ag4896
ag107
ag4505
ag4733
ag4822
ag4539
ag3282
ag4566
ag3398
ag4648
ag4689
ag3491
ag5023
ag4759
ag550
ag4856
ag4912
ag4945
ag4968
ag4970
ag4977
ag4994
ag5006
ag3778
ag4489
ag763
ag3371
ag3584
ag5241
ag4278
ag4324
ag4357
ag4375
ag4384
ag4387
ag4389
ag4537
ag4556
ag3392
ag4621
ag4627
ag4676
ag4687
ag4697
ag4688
ag3785
ag3668
ag4900
ag4922
ag4940
ag662
ag4998
ag5020
ag4602
ag5036
ag5039
ag616
ag5088
ag5130
ag1878
ag863
ag5169
ag3961
ag5203
ag5231
ag5243
ag5102
ag4314
ag4325
ag4333
ag4378
ag5004
ag4657
ag4275
ag4457
ag4500
ag4509
ag4667
ag4690
ag4591
ag4567
ag4608
ag4647
ag218
ag4685
ag4734
ag4727
ag4747
ag4750
ag4766
ag4850
ag4917
ag4936
ag4969
ag4899
ag4364
ag191
ag5030
ag5032
ag5042
ag5049
ag5061
ag5064
ag3843
ag5112
ag4437
ag4530
ag5242
ag5265
ag3048
ag4269
ag4304
ag4451
ag4316
ag4343
ag4352
ag4353
ag4362
ag4365
ag4371
ag4463
ag4418
ag4433
ag4438
ag4465
ag4467
ag4540
ag4508
ag4555
ag4577
ag4578
ag5166
ag4595
ag4620
ag303
ag5160
ag4679
ag4696
ag4311
ag4756
ag4776
ag4837
ag4847
ag3162
ag582
ag4898
ag4904
ag4911
ag4916
ag5256
ag4933
ag4946
ag4959
ag4967
ag4040
ag4986
ag1480
ag1724
ag1627
ag5248
ag4435
ag4661
ag5106
ag5139
ag5141
ag5151
ag5201
ag5211
ag5232
ag3729
ag5246
ag961
ag5257
ag5262
ag4760
ag327
ag5277
ag4271
ag4279
ag4289
ag4290
ag2992
ag4300
ag4607
ag4331
ag4646
ag4345
ag4348
ag4349
ag4826
ag4372
ag4386
ag5164
ag4429
ag4436
ag4441
ag4560
ag5062
ag4298
ag4491
ag201
ag1233
ag4538
ag4545
ag4559
ag4814
ag4582
ag4585
ag1738
ag1346
ag335
ag4330
ag4650
ag4416
ag4660
ag4894
ag3952
ag5116
ag4601
ag4724
ag4732
ag2741
ag4737
ag2783
ag4784
ag4786
ag4788
ag4795
ag4807
ag4821
ag1426
ag4825
ag556
ag4870
ag4873
ag4891
ag4907
ag4961
ag4982
ag4804
ag5007
ag5009
ag4344
ag5013
ag5021
ag5027
ag5035
ag5040
ag5044
ag1058
ag5078
ag5090
ag5098
ag5210
ag4356
ag832
ag5138
ag5146
ag5150
ag5152
ag364
ag5163
ag5170
ag4783
ag5202
ag5207
ag4789
ag5214
ag5222
ag5226
ag5227
ag4964
ag5240
ag5250
ag5266
ag4285
ag4293
ag4294
ag4301
ag4320
ag4288
ag4656
ag4340
ag4341
ag4913
ag681
ag1021
ag105
ag4392
ag2796
ag5111
ag4405
ag4413
ag3837
ag4427
ag5172
ag4440
ag4443
ag4444
ag4859
ag4466
ag4470
ag4472
ag4476
ag4477
ag4484
ag3276
ag4487
ag170
ag3968
ag4514
ag4517
ag4520
ag4525
ag4526
ag4305
ag4533
ag5197
ag4536
ag4547
ag4563
ag4574
ag4575
ag4581
ag4583
ag4584
ag4587
ag4596
ag4604
ag2329
ag4612
ag4623
ag4628
ag4781
ag4644
ag4645
ag5144
ag4654
ag4673
ag4669
ag4672
ag4292
ag4675
ag4677
ag4698
ag4799
ag4718
ag4721
ag2955
ag4741
ag4439
ag4763
ag4772
ag4507
ag3578
ag4815
ag4816
ag4818
ag1455
ag4842
ag4851
ag4862
ag4864
ag4866
ag4868
ag4872
ag1011
ag4877
ag4880
ag4881
ag4889
ag4380
ag1454
ag4919
ag4924
ag4934
ag4939
ag5076
ag1474
ag4990
ag4557
ag4966
ag4978
ag4980
ag5180
ag5087
ag5008
ag5011
ag4390
ag5031
ag4579
ag5038
ag5059
ag5025
ag5063
ag4947
ag5084
ag5089
ag5093
ag5099
ag5100
ag5105
ag4809
ag3156
ag5117
ag5121
ag5124
ag5110
ag5129
ag5135
ag5136
ag5142
ag5154
ag5159
ag1875
ag5168
ag5123
ag5186
ag5190
ag4997
ag5206
ag4420
ag5212
ag5213
ag5220
ag5224
ag2994
ag5245
ag4017
ag4606
ag492
ag5275
ag4267
ag4272
ag4274
ag3062
ag4276
ag5045
ag4287
ag5271
ag4890
ag4291
ag4295
ag4296
ag4303
ag4307
ag4309
ag4312
ag4532
ag4327
ag4893
ag4336
ag403
ag4338
ag4342
ag5115
ag69
ag4350
ag4355
ag87
ag4363
ag4374
ag606
ag5153
ag4882
ag4381
ag1024
ag4976
ag4393
ag4399
ag4400
ag4403
ag4404
ag4414
ag5120
ag4801
ag4653
ag5131
ag3759
ag4713
ag4442
ag4339
ag4446
ag4449
ag4462
ag4469
ag4475
ag4535
ag1301
ag4773
ag1015
ag4564
ag4515
ag4516
ag4527
ag4542
ag4544
ag1589
ag4549
ag4765
ag4953
ag4565
ag4571
ag4572
ag4531
ag4589
ag4806
ag4597
ag5016
ag4598
ag4600
ag4610
ag1338
ag4603
ag4960
ag5024
ag4640
ag4641
ag4643
ag4744
ag4649
ag5273
ag4655
ag3425
ag4283
ag338
ag5014
ag4664
ag2300
ag1409
ag4849
ag4671
ag3521
ag1557
ag4686
ag4714
ag4694
ag1437
ag2582
ag4707
ag4383
ag4716
ag4728
ag5034
ag4735
ag4739
ag1485
ag4740
ag4445
ag5056
ag4749
ag3731
ag4761
ag4796
ag4768
ag4770
ag5055
ag4774
ag3543
ag4938
ag5247
ag4787
ag4791
ag4792
ag4794
ag4797
ag4798
ag4800
ag4805
ag2573
ag4820
ag5270
ag2544
ag4810
ag4812
ag5264
ag4819
ag5107
ag4823
ag4827
ag4828
ag4830
ag4833
ag4834
ag4840
ag4668
ag4852
ag4854
ag4468
ag4867
ag4771
ag4874
ag4546
ag4782
ag4883
ag4886
ag4888
ag3664
ag600
ag4897
ag3672
ag4901
ag4902
ag4903
ag4905
ag5022
ag4921
ag4923
ag4929
ag4930
ag4931
ag4695
ag5074
ag4943
ag3708
ag4949
ag4950
ag4951
ag4957
ag4958
ag4963
ag2714
ag4973
ag4974
ag4975
ag4981
ag4987
ag4989
ag4991
ag4999
ag5002
ag5003
ag4605
ag5010
ag1714
ag4736
ag5000
ag4914
ag5026
ag4473
ag5079
ag5255
ag5052
ag4518
ag2156
ag1149
ag4594
ag5072
ag1798
ag5086
ag5001
ag5103
ag4593
ag5109
ag802
ag5113
ag5114
ag3045
ag5119
ag5230
ag5215
ag818
ag5125
ag5127
ag978
ag5133
ag5134
ag5148
ag5157
ag5162
ag1334
ag2535
ag4541
ag3930
ag5118
ag5187
ag4895
ag4317
ag4609
ag5192
ag5200
ag5208
ag4802
ag5219
ag5221
ag5223
ag5225
ag2991
ag5229
ag3719
ag5236
ag1970
ag5238
ag3760
ag2517
ag5249
ag1993
ag3846
ag1918
ag689
ag4032
ag4941
ag5267
ag4985
ag5272
ag486
ag5276
aa(dp5279
S'ia'
p5280
I225
sg3062
I226
sS'gs'
p5281
I86
sg2582
I227
sg453
I61
sS'gy'
p5282
I210
sS'ge'
p5283
I80
sS'xi'
p5284
I228
sS'd:'
p5285
I192
sS'd;'
p5286
I183
sS'go'
p5287
I107
sS'gn'
p5288
I143
sS'lk'
p5289
I136
sS'gh'
p5290
I69
sS'lf'
p5291
I87
sS'ld'
p5292
I33
sS'le'
p5293
I35
sS'20'
p5294
I229
sS'ty'
p5295
I79
sg3584
I170
sS'll'
p5296
I31
sS'lm'
p5297
I162
sg266
I5
sg2056
I11
sS'lt'
p5298
I119
sS'ls'
p5299
I104
sS'th'
p5300
I30
sS'te'
p5301
I71
sS'ly'
p5302
I25
sS'dn'
p5303
I85
sg527
I106
sS'dd'
p5304
I211
sS'de'
p5305
I64
sS'ye'
p5306
I165
sS'g:'
p5307
I230
sg1454
I194
sS'dy'
p5308
I109
sS'ma'
p5309
I179
sS'ys'
p5310
I90
sS'ds'
p5311
I60
sS'ro'
p5312
I231
sS't;'
p5313
I195
sg802
I232
sg303
I185
sS'ax'
p5314
I233
sS'cu'
p5315
I234
sS'ub'
p5316
I184
sg2994
I205
sS'em'
p5317
I62
sS'el'
p5318
I97
sS'en'
p5319
I20
sS'ek'
p5320
I153
sS'ee'
p5321
I59
sS'ed'
p5322
I4
sS'eg'
p5323
I186
sS'ef'
p5324
I163
sS'ft'
p5325
I105
sS'ec'
p5326
I235
sg818
I236
sS'ct'
p5327
I137
sS'ey'
p5328
I67
sg1346
I156
sS'zz'
p5329
I187
sg3759
I237
sS'et'
p5330
I45
sS'ew'
p5331
I72
sS'ep'
p5332
I111
sS'es'
p5333
I22
sS'er'
p5334
I9
sS'rt'
p5335
I81
sS'00'
p5336
I196
sS'rp'
p5337
I197
sg3398
I166
sS'rs'
p5338
I63
sS'ry'
p5339
I70
sg1015
I238
sS'rd'
p5340
I75
sS're'
p5341
I17
sg1301
I239
sS'o;'
p5342
I240
sS'ra'
p5343
I108
sg3156
I212
sS'rl'
p5344
I134
sS'rm'
p5345
I128
sS'rn'
p5346
I101
sg383
I1
sS'uv'
p5347
I252
sg3907
I56
sS'rk'
p5348
I118
sg2908
I66
sg590
I102
sS'wd'
p5349
I242
sS'y;'
p5350
I221
sS'wo'
p5351
I112
sS'wn'
p5352
I88
sS'wl'
p5353
I168
sg600
I243
sS'bt'
p5354
I213
sS'ws'
p5355
I117
sg2714
I244
sS'e;'
p5356
I169
sS'bs'
p5357
I157
sS'ka'
p5358
I245
sg2924
I114
sS'oo'
p5359
I99
sS'on'
p5360
I23
sS'om'
p5361
I57
sS'ol'
p5362
I140
sS'ok'
p5363
I82
sg1878
I175
sS'og'
p5364
I198
sg1879
I13
sS'oe'
p5365
I65
sS'od'
p5366
I77
sS'ob'
p5367
I160
sg863
I176
sS'r;'
p5368
I199
sS'lo'
p5369
I193
sg1627
I188
sg3719
I159
sS'oy'
p5370
I154
sS'ox'
p5371
I171
sS'ow'
p5372
I41
sS'ou'
p5373
I54
sS'ot'
p5374
I55
sS'os'
p5375
I214
sS'or'
p5376
I26
sS'op'
p5377
I115
sS'ck'
p5378
I52
sS'ch'
p5379
I53
sS'h>'
p5380
I144
sg2300
I246
sg3952
I200
sS'e:'
p5381
I247
sS'ez'
p5382
I248
sS'ce'
p5383
I37
sS'ts'
p5384
I43
sS'cy'
p5385
I113
sS'cs'
p5386
I249
sS'a;'
p5387
I250
sS'xt'
p5388
I147
sS've'
p5389
I34
sS'ps'
p5390
I93
sg2443
I10
sS'pt'
p5391
I120
sS'py'
p5392
I172
sg648
I3
sS'0%'
p5393
I241
sg1426
I201
sS'ze'
p5394
I133
sS'ak'
p5395
I141
sg1798
I251
sS'zy'
p5396
I189
sS'hy'
p5397
I129
sS'lp'
p5398
I148
sS'hs'
p5399
I149
sS'pe'
p5400
I145
sS'la'
p5401
I202
sS'ht'
p5402
I47
sS'al'
p5403
I73
sg3968
I215
sS'ho'
p5404
I121
sS'hm'
p5405
I253
sg3578
I216
sS'he'
p5406
I2
sS'me'
p5407
I21
sS'uy'
p5408
I135
sg1455
I217
sS'mb'
p5409
I150
sS'mm'
p5410
I254
sS'ut'
p5411
I28
sS'mn'
p5412
I203
sg170
I218
sg2989
I68
sS'us'
p5413
I95
sS'ur'
p5414
I98
sS'um'
p5415
I204
sS'ss'
p5416
I50
sS'uo'
p5417
I255
sS'un'
p5418
I110
sS'ui'
p5419
I256
sS'mp'
p5420
I167
sS'ms'
p5421
I124
sg173
I164
sS'ue'
p5422
I122
sS'ud'
p5423
I146
sS'ug'
p5424
I177
sS'pm'
p5425
I257
sg174
I24
sS'il'
p5426
I125
sS'ix'
p5427
I178
sS'ac'
p5428
I219
sS'ab'
p5429
I190
sS'ad'
p5430
I27
sS'ag'
p5431
I155
sS'af'
p5432
I220
sS'ip'
p5433
I138
sS'is'
p5434
I19
sS'ir'
p5435
I74
sS'am'
p5436
I78
sS'it'
p5437
I18
sS'an'
p5438
I36
sS'ap'
p5439
I158
sS'as'
p5440
I15
sS'ar'
p5441
I48
sS'im'
p5442
I49
sS'at'
p5443
I12
sS'aw'
p5444
I92
sg706
I16
sS'ay'
p5445
I46
sS'vy'
p5446
I180
sS'ic'
p5447
I132
sS'ie'
p5448
I151
sS'id'
p5449
I39
sS'ig'
p5450
I142
sg709
I83
sg2230
I116
sS'sk'
p5451
I130
sS'nk'
p5452
I91
sS's>'
p5453
I32
sg1756
I84
sg3778
I173
sS'na'
p5454
I206
sS'nd'
p5455
I6
sS'ne'
p5456
I44
sS'ng'
p5457
I8
sS'ny'
p5458
I94
sg2239
I0
sS'n;'
p5459
I222
sg1993
I258
sS'k;'
p5460
I207
sS'ns'
p5461
I89
sS'nt'
p5462
I40
sS's;'
p5463
I181
sS'ea'
p5464
I161
sg975
I51
sg976
I58
sS'io'
p5465
I223
sg978
I259
sS'fy'
p5466
I224
sg1885
I123
sg2535
I260
sS'fe'
p5467
I126
sS'ff'
p5468
I96
sg1409
I261
sg989
I131
sg2262
I14
sS'sy'
p5469
I152
sg3045
I262
sS'ke'
p5470
I42
sg3804
I7
sS'ta'
p5471
I263
sS'ki'
p5472
I208
sS'sp'
p5473
I182
sS'st'
p5474
I29
sS'ks'
p5475
I100
sS'sh'
p5476
I103
sg1257
I76
sS'sn'
p5477
I127
sS'sm'
p5478
I191
sS'30'
p5479
I209
sS'ky'
p5480
I174
sS'se'
p5481
I38
sS'ul'
p5482
I139
sa(lp5483
g2239
ag383
ag5406
ag648
ag5322
ag266
ag5455
ag3804
ag5457
ag5334
ag2443
ag2056
ag5443
ag1879
ag2262
ag5440
ag706
ag5341
ag5437
ag5434
ag5319
ag5407
ag5333
ag5360
ag174
ag5302
ag5376
ag5430
ag5411
ag5474
ag5300
ag5296
ag5453
ag5292
ag5389
ag5293
ag5438
ag5383
ag5481
ag5449
ag5462
ag5372
ag5470
ag5384
ag5456
ag5330
ag5445
ag5402
ag5441
ag5442
ag5416
ag975
ag5378
ag5379
ag5373
ag5374
ag3907
ag5361
ag976
ag5321
ag5311
ag453
ag5317
ag5338
ag5305
ag5365
ag2908
ag5328
ag2989
ag5290
ag5339
ag5301
ag5331
ag5403
ag5435
ag5340
ag1257
ag5366
ag5436
ag5295
ag5283
ag5335
ag5363
ag709
ag1756
ag5303
ag5281
ag5291
ag5352
ag5461
ag5310
ag5452
ag5444
ag5390
ag5458
ag5413
ag5468
ag5318
ag5414
ag5359
ag5475
ag5346
ag590
ag5476
ag5299
ag5325
ag527
ag5287
ag5343
ag5308
ag5418
ag5332
ag5351
ag5385
ag2924
ag5377
ag2230
ag5355
ag5348
ag5298
ag5391
ag5404
ag5422
ag1885
ag5421
ag5426
ag5467
ag5477
ag5345
ag5397
ag5451
ag989
ag5447
ag5394
ag5344
ag5408
ag5289
ag5327
ag5433
ag5482
ag5362
ag5395
ag5450
ag5288
ag5380
ag5400
ag5423
ag5388
ag5398
ag5399
ag5409
ag5448
ag5469
ag5320
ag5370
ag5431
ag1346
ag5357
ag5439
ag3719
ag5367
ag5464
ag5297
ag5324
ag173
ag5306
ag3398
ag5420
ag5353
ag5356
ag3584
ag5371
ag5392
ag3778
ag5480
ag1878
ag863
ag5424
ag5427
ag5309
ag5446
ag5463
ag5473
ag5286
ag5316
ag303
ag5323
ag5329
ag1627
ag5396
ag5429
ag5478
ag5285
ag5369
ag1454
ag5313
ag5336
ag5337
ag5364
ag5368
ag3952
ag1426
ag5401
ag5412
ag5415
ag2994
ag5454
ag5460
ag5472
ag5479
ag5282
ag5304
ag3156
ag5354
ag5375
ag3968
ag3578
ag1455
ag170
ag5428
ag5432
ag5350
ag5459
ag5465
ag5466
ag5280
ag3062
ag2582
ag5284
ag5294
ag5307
ag5312
ag802
ag5314
ag5315
ag5326
ag818
ag3759
ag1015
ag1301
ag5342
ag5393
ag5349
ag600
ag2714
ag5358
ag2300
ag5381
ag5382
ag5386
ag5387
ag1798
ag5347
ag5405
ag5410
ag5417
ag5419
ag5425
ag1993
ag978
ag2535
ag1409
ag3045
ag5471
aa(dp5484
S'alo'
p5485
I727
sg2031
I56
sS'alm'
p5486
I394
sS'rol'
p5487
I542
sS'rom'
p5488
I57
sS'ron'
p5489
I728
sS'pth'
p5490
I618
sS'lls'
p5491
I231
sS'oss'
p5492
I192
sS'ale'
p5493
I395
sg1011
I619
sS'lly'
p5494
I76
sS'eds'
p5495
I411
sg3062
I729
sS'llo'
p5496
I620
sg832
I123
sS'pty'
p5497
I621
sS'aly'
p5498
I730
sg3074
I232
sS'ror'
p5499
I356
sS'edy'
p5500
I731
sS'ose'
p5501
I118
sS'als'
p5502
I543
sS'lle'
p5503
I622
sS'alk'
p5504
I261
sS'ots'
p5505
I440
sS'ver'
p5506
I51
sg1024
I273
sS'qui'
p5507
I808
sS'ese'
p5508
I371
sg2056
I9
sS'ved'
p5509
I144
sS'irm'
p5510
I732
sS'ven'
p5511
I161
sS'vel'
p5512
I494
sS'ald'
p5513
I733
sS'oid'
p5514
I571
sS'xth'
p5515
I734
sS'ert'
p5516
I447
sg2068
I243
sS'ost'
p5517
I121
sS'ics'
p5518
I938
sS'mpt'
p5519
I495
sS'mps'
p5520
I496
sS'ski'
p5521
I897
sS'pun'
p5522
I657
sS'ed;'
p5523
I736
sS'ius'
p5524
I737
sg1048
I738
sS'dio'
p5525
I623
sS'gue'
p5526
I357
sg1054
I177
sS'die'
p5527
I497
sS'dif'
p5528
I624
sS'eve'
p5529
I372
sS'dic'
p5530
I739
sg3118
I321
sS'icu'
p5531
I740
sg1061
I477
sg1064
I274
sS'ict'
p5532
I741
sS'ulp'
p5533
I742
sg1068
I625
sS'ody'
p5534
I224
sS'tel'
p5535
I743
sS'ten'
p5536
I216
sS'ued'
p5537
I373
sS'de:'
p5538
I744
sS'ted'
p5539
I39
sg2102
I576
sS'hth'
p5540
I745
sS'rop'
p5541
I441
sS'hts'
p5542
I374
sS'rry'
p5543
I222
sS'tep'
p5544
I549
sS'ter'
p5545
I54
sS'tes'
p5546
I255
sS'lla'
p5547
I603
sS'ues'
p5548
I583
sS'uls'
p5549
I550
sS'sue'
p5550
I627
sg2746
I748
sg2116
I264
sS'ned'
p5551
I60
sS'ast'
p5552
I116
sg1798
I894
sS'rd:'
p5553
I749
sg1090
I667
sS'abs'
p5554
I751
sS'ney'
p5555
I336
sg86
I128
sS'net'
p5556
I471
sS'row'
p5557
I335
sS'ner'
p5558
I196
sS'nes'
p5559
I260
sS'era'
p5560
I412
sS'med'
p5561
I124
sS'oze'
p5562
I747
sS'led'
p5563
I50
sS'ull'
p5564
I245
sS'ggs'
p5565
I413
sg3164
I628
sS'mel'
p5566
I753
sg173
I402
sS'lem'
p5567
I119
sS'len'
p5568
I443
sS'rug'
p5569
I629
sg101
I630
sS'ler'
p5570
I197
sS'les'
p5571
I98
sg3172
I223
sS'uff'
p5572
I444
sS'mes'
p5573
I173
sS'mer'
p5574
I388
sS'lex'
p5575
I755
sg105
I631
sS'win'
p5576
I551
sg1114
I432
sg1115
I375
sS'ero'
p5577
I773
sS'rds'
p5578
I138
sS'cts'
p5579
I553
sS'aks'
p5580
I632
sg174
I14
sS'bor'
p5581
I633
sS'gle'
p5582
I396
sS'gly'
p5583
I499
sS'orm'
p5584
I554
sS'ne;'
p5585
I756
sg3785
I859
sS'que'
p5586
I757
sg2796
I634
sS'ein'
p5587
I758
sS'eks'
p5588
I415
sS'ake'
p5589
I125
sS'wig'
p5590
I759
sg616
I531
sS'nto'
p5591
I63
sS'ipe'
p5592
I480
sS'aps'
p5593
I276
sS'mie'
p5594
I762
sS'apt'
p5595
I763
sS'ips'
p5596
I337
sS'iew'
p5597
I635
sS'uzz'
p5598
I500
sS'sch'
p5599
I764
sS'ape'
p5600
I416
sS'use'
p5601
I127
sS'fee'
p5602
I354
sg2168
I417
sS'che'
p5603
I636
sS'fic'
p5604
I681
sg4017
I718
sS'usk'
p5605
I766
sg2173
I163
sS'ush'
p5606
I338
sg3216
I200
sS'eys'
p5607
I767
sS'ust'
p5608
I71
sS'fer'
p5609
I637
sS'asm'
p5610
I638
sS'chy'
p5611
I768
sS'ays'
p5612
I151
sS'ood'
p5613
I84
sS'lge'
p5614
I970
sS'oof'
p5615
I556
sS'oom'
p5616
I277
sS'ool'
p5617
I339
sS'oon'
p5618
I360
sS'ook'
p5619
I85
sS'rk;'
p5620
I807
sS'oot'
p5621
I398
sS'nks'
p5622
I418
sS'nue'
p5623
I872
sS'oor'
p5624
I181
sg1035
I25
sS'kle'
p5625
I557
sS'uly'
p5626
I639
sS'ers'
p5627
I99
sg1188
I100
sS'der'
p5628
I66
sS'des'
p5629
I323
sg170
I640
sS'ery'
p5630
I184
sS'ult'
p5631
I641
sS'ere'
p5632
I21
sS'del'
p5633
I772
sS'can'
p5634
I111
sS'den'
p5635
I275
sS'cal'
p5636
I324
sS'dea'
p5637
I501
sS'ern'
p5638
I445
sS'ibs'
p5639
I552
sS'ded'
p5640
I108
sS'kly'
p5641
I340
sS'uld'
p5642
I30
sS'ule'
p5643
I558
sS'hip'
p5644
I774
sS'obe'
p5645
I683
sS'ger'
p5646
I156
sS'es;'
p5647
I945
sS'sps'
p5648
I643
sS'tay'
p5649
I502
sS'ual'
p5650
I399
sg978
I937
sS'tal'
p5651
I219
sS'ssy'
p5652
I503
sS'yly'
p5653
I946
sg1015
I776
sg2230
I174
sg3276
I644
sS'hoe'
p5654
I645
sg195
I139
sS'ene'
p5655
I559
sg3280
I419
sS'afe'
p5656
I646
sg3282
I473
sS'oys'
p5657
I291
sg1714
I777
sS'sic'
p5658
I778
sS'how'
p5659
I157
sg2239
I0
sS'ens'
p5660
I400
sS'ent'
p5661
I65
sS'hop'
p5662
I376
sS'eny'
p5663
I779
sg364
I560
sS'sis'
p5664
I561
sS'lan'
p5665
I567
sg1233
I562
sg1234
I474
sS'lag'
p5666
I780
sS'lax'
p5667
I811
sg218
I361
sS'ove'
p5668
I210
sS'lat'
p5669
I648
sS':30'
p5670
I615
sS'asy'
p5671
I475
sg223
I649
sS'acy'
p5672
I269
sS'lar'
p5673
I446
sg1246
I94
sg2262
I11
sS'ghs'
p5674
I563
sS'egs'
p5675
I233
sS'obs'
p5676
I782
sg1257
I83
sS'aty'
p5677
I812
sS'ege'
p5678
I476
sS'tty'
p5679
I325
sS'lse'
p5680
I362
sS'ith'
p5681
I33
sS'tts'
p5682
I783
sS'lso'
p5683
I377
sS'ite'
p5684
I152
sS'zen'
p5685
I650
sS'lry'
p5686
I735
sS'nee'
p5687
I785
sS'ity'
p5688
I185
sS'ien'
p5689
I505
sS'its'
p5690
I90
sS'tte'
p5691
I786
sg1285
I787
sg1610
I788
sS'imb'
p5692
I506
sS'ime'
p5693
I113
sg262
I789
sS'gth'
p5694
I421
sS'cle'
p5695
I422
sg1290
I363
sg266
I4
sS'gen'
p5696
I790
sS'imp'
p5697
I651
sS'tsy'
p5698
I791
sS'euv'
p5699
I792
sS'fin'
p5700
I793
sS'eur'
p5701
I794
sg3349
I158
sS'oks'
p5702
I247
sS'ced'
p5703
I201
sg1302
I565
sS'cel'
p5704
I795
sg606
I796
sS'ces'
p5705
I236
sg2329
I652
sS'cep'
p5706
I797
sg1314
I82
sg1315
I62
sg3360
I175
sS'nor'
p5707
I566
sS'ift'
p5708
I507
sS'bes'
p5709
I915
sg303
I508
sS'ife'
p5710
I204
sS'iff'
p5711
I798
sS'ony'
p5712
I653
sg1334
I799
sg1338
I800
sS'lad'
p5713
I569
sS'oun'
p5714
I654
sS'hly'
p5715
I509
sS'oul'
p5716
I655
sS'as;'
p5717
I801
sS'rs;'
p5718
I814
sS'mas'
p5719
I647
sS'oud'
p5720
I359
sg1346
I568
sS'ous'
p5721
I211
sS'our'
p5722
I145
sS'out'
p5723
I29
sS'gus'
p5724
I802
sS'fts'
p5725
I803
sS'rey'
p5726
I804
sS'bly'
p5727
I212
sS'is>'
p5728
I19
sg3398
I423
sS'fty'
p5729
I805
sS'res'
p5730
I292
sS'rew'
p5731
I278
sS'ret'
p5732
I401
sg335
I544
sS'ren'
p5733
I193
sg338
I806
sS'ble'
p5734
I101
sg339
I153
sS'rea'
p5735
I609
sS'red'
p5736
I44
sS'ree'
p5737
I104
sS'ass'
p5738
I202
sS'ece'
p5739
I547
sS'asp'
p5740
I548
sS'mmy'
p5741
I572
sS'ems'
p5742
I405
sS'ory'
p5743
I322
sS'rld'
p5744
I424
sS'nts'
p5745
I178
sS'lms'
p5746
I765
sS'eck'
p5747
I478
sg2156
I916
sS'orn'
p5748
I256
sS'nth'
p5749
I511
sS'ect'
p5750
I379
sS'rly'
p5751
I257
sS'ork'
p5752
I308
sS'ase'
p5753
I244
sg2162
I381
sS'fle'
p5754
I573
sS'ord'
p5755
I380
sS'ore'
p5756
I70
sS'asn'
p5757
I279
sS'rls'
p5758
I577
sS'log'
p5759
I969
sS'lts'
p5760
I574
sS'wly'
p5761
I258
sS'ate'
p5762
I167
sS'iss'
p5763
I479
sS'ato'
p5764
I658
sS'lty'
p5765
I659
sS'isp'
p5766
I642
sg2400
I448
sS'ath'
p5767
I133
sS'ist'
p5768
I205
sS'isk'
p5769
I660
sS'ish'
p5770
I280
sS'ats'
p5771
I364
sS'ise'
p5772
I198
sg1239
I769
sS'uel'
p5773
I592
sS'cy;'
p5774
I813
sS'ong'
p5775
I130
sS'ond'
p5776
I293
sg1406
I48
sg2618
I342
sS'zes'
p5777
I784
sg1409
I781
sS'ons'
p5778
I294
sS'ont'
p5779
I186
sg383
I1
sS'ial'
p5780
I555
sg2443
I8
sS'wls'
p5781
I810
sS'tor'
p5782
I134
sS'top'
p5783
I281
sg390
I815
sS'mal'
p5784
I504
sg1426
I588
sg394
I131
sg2099
I726
sS'rch'
p5785
I955
sS'uke'
p5786
I820
sS'ncy'
p5787
I821
sS'iar'
p5788
I481
sS'ght'
p5789
I31
sg1432
I822
sg1925
I403
sS'ash'
p5790
I397
sS'rse'
p5791
I248
sg4008
I963
sS'tom'
p5792
I818
sS'nct'
p5793
I584
sg2405
I826
sS'nch'
p5794
I365
sS'hup'
p5795
I827
sS'sey'
p5796
I869
sS'ge;'
p5797
I828
sS'gin'
p5798
I295
sS'rst'
p5799
I182
sS'nce'
p5800
I86
sg2582
I830
sS'vie'
p5801
I918
sS'ste'
p5802
I578
sg1454
I661
sg1455
I671
sg3490
I662
sg3491
I249
sS'num'
p5803
I832
sS'sts'
p5804
I449
sS'ber'
p5805
I343
sS'ke;'
p5806
I663
sS'rob'
p5807
I833
sS'ybe'
p5808
I309
sS'bet'
p5809
I834
sg1468
I6
sS'ane'
p5810
I579
sS'ang'
p5811
I580
sS'rab'
p5812
I581
sS'uds'
p5813
I582
sg433
I426
sS'ral'
p5814
I259
sg662
I835
sS'ank'
p5815
I326
sS'ant'
p5816
I122
sS'raw'
p5817
I404
sg1481
I310
sS'rso'
p5818
I836
sS'rap'
p5819
I664
sS'ans'
p5820
I311
sS'sky'
p5821
I605
sg1486
I140
sS'any'
p5822
I164
sg1489
I327
sS'lid'
p5823
I382
sg2787
I665
sS'le;'
p5824
I838
sS'lec'
p5825
I752
sS'mic'
p5826
I694
sS'eft'
p5827
I206
sS'rce'
p5828
I512
sS'lit'
p5829
I513
sg3731
I841
sS'zor'
p5830
I842
sg2521
I514
sS'hty'
p5831
I746
sS'uer'
p5832
I843
sS'mit'
p5833
I515
sS'ck;'
p5834
I844
sS'ad;'
p5835
I931
sS'uys'
p5836
I465
sS'udy'
p5837
I824
sS'sfy'
p5838
I845
sg1437
I825
sg3532
I187
sS'aws'
p5839
I328
sS'awn'
p5840
I516
sS'awl'
p5841
I846
sg2535
I847
sg3542
I282
sS'ure'
p5842
I114
sg2300
I848
sg480
I179
sS'ura'
p5843
I585
sS'uss'
p5844
I771
sS'url'
p5845
I666
sS'urn'
p5846
I225
sS'mur'
p5847
I850
sS'cki'
p5848
I717
sg486
I974
sS'dka'
p5849
I852
sS'urt'
p5850
I586
sS'ext'
p5851
I312
sS'cks'
p5852
I344
sS'urs'
p5853
I250
sS'axi'
p5854
I853
sS'cky'
p5855
I517
sS'dow'
p5856
I427
sS'ugh'
p5857
I72
sS'ugo'
p5858
I345
sS'ss;'
p5859
I855
sS'nly'
p5860
I106
sS'ude'
p5861
I829
sS'rth'
p5862
I283
sS'rts'
p5863
I284
sS'ibe'
p5864
I856
sS'ugs'
p5865
I668
sS'xis'
p5866
I817
sS'kup'
p5867
I857
sS'rty'
p5868
I450
sS'so;'
p5869
I858
sS'nge'
p5870
I296
sS'ock'
p5871
I457
sg3578
I669
sS'zed'
p5872
I341
sg2573
I750
sg3584
I414
sS'ies'
p5873
I180
sS'ier'
p5874
I451
sS'jar'
p5875
I860
sS'iet'
p5876
I482
sS'sh>'
p5877
I297
sg2544
I861
sg2645
I587
sS'ngs'
p5878
I159
sS'hre'
p5879
I862
sS'aby'
p5880
I670
sg1557
I863
sS'ied'
p5881
I120
sS'ief'
p5882
I428
sS'ges'
p5883
I346
sg527
I146
sg2584
I16
sS'hit'
p5884
I347
sg1562
I147
sg2123
I864
sS'yed'
p5885
I301
sS'ls;'
p5886
I920
sS'hic'
p5887
I865
sg2597
I866
sS'ged'
p5888
I194
sg2602
I37
sS'hin'
p5889
I429
sS'sta'
p5890
I831
sg543
I452
sS'lor'
p5891
I575
sS'shy'
p5892
I518
sg2610
I453
sg549
I383
sg550
I430
sg3621
I38
sS'alf'
p5893
I368
sg556
I589
sS'ng:'
p5894
I868
sS'arp'
p5895
I590
sS'rms'
p5896
I267
sS'ars'
p5897
I136
sS'ses'
p5898
I237
sS'ser'
p5899
I238
sS'omb'
p5900
I483
sS'ary'
p5901
I519
sS'rmy'
p5902
I672
sS'oma'
p5903
I675
sg69
I770
sg2625
I425
sS'ara'
p5904
I203
sg2627
I109
sS'sed'
p5905
I74
sS'ard'
p5906
I88
sg2629
I80
sS'ebs'
p5907
I870
sS'sen'
p5908
I871
sS'ark'
p5909
I246
sS'arm'
p5910
I220
sS'arn'
p5911
I873
sS'iry'
p5912
I874
sS'lur'
p5913
I673
sS'lus'
p5914
I674
sS'od;'
p5915
I839
sS'dle'
p5916
I349
sS'azy'
p5917
I613
sS'irs'
p5918
I520
sS'irt'
p5919
I384
sg582
I521
sg1301
I875
sg2992
I545
sS'irl'
p5920
I239
sS'lue'
p5921
I314
sS'dly'
p5922
I268
sS'ird'
p5923
I366
sS'ire'
p5924
I315
sS'law'
p5925
I877
sg2994
I715
sS'ken'
p5926
I348
sg590
I132
sg591
I442
sS'ome'
p5927
I59
sS'joy'
p5928
I593
sS'ked'
p5929
I26
sS'se;'
p5930
I878
sg600
I879
sS'ian'
p5931
I676
sS'oms'
p5932
I880
sg3668
I431
sg3671
I55
sS'ike'
p5933
I52
sg3672
I881
sS'wth'
p5934
I882
sg1616
I677
sS'ket'
p5935
I240
sS'kes'
p5936
I385
sS'ker'
p5937
I678
sS'ets'
p5938
I350
sS'ild'
p5939
I406
sS'ile'
p5940
I168
sS'unt'
p5941
I455
sS'han'
p5942
I218
sS'ill'
p5943
I103
sS'ety'
p5944
I486
sS'ilk'
p5945
I883
sS'sty'
p5946
I484
sS'una'
p5947
I884
sg1627
I523
sS'und'
p5948
I53
sS'ils'
p5949
I408
sS'tle'
p5950
I176
sS'ung'
p5951
I386
sS'tra'
p5952
I679
sS'eth'
p5953
I251
sS'unk'
p5954
I387
sg624
I594
sg3810
I886
sS'ily'
p5955
I234
sS':15'
p5956
I888
sS'rag'
p5957
I889
sS'elf'
p5958
I112
sS'pot'
p5959
I485
sS'lew'
p5960
I695
sS'pon'
p5961
I680
sS'id;'
p5962
I934
sS'uce'
p5963
I595
sS'wel'
p5964
I890
sS'uck'
p5965
I316
sS'uch'
p5966
I154
sS'hut'
p5967
I456
sS'irk'
p5968
I876
sg2701
I329
sS'hay'
p5969
I564
sS'sal'
p5970
I682
sg648
I2
sg1474
I684
sS'ely'
p5971
I169
sS'bby'
p5972
I891
sg3719
I892
sg2714
I893
sS'erm'
p5973
I823
sS'oth'
p5974
I252
sg107
I498
sg2857
I685
sg610
I524
sS'pid'
p5975
I470
sg2724
I686
sS'gar'
p5976
I540
sg3729
I538
sS'gan'
p5977
I317
sS'uns'
p5978
I895
sg1969
I170
sS'gns'
p5979
I525
sS'eir'
p5980
I160
sg2738
I896
sS'sly'
p5981
I318
sS'ysm'
p5982
I688
sg1970
I962
sS'ait'
p5983
I215
sS'rbs'
p5984
I898
sS'air'
p5985
I126
sS'ail'
p5986
I458
sS'ain'
p5987
I42
sg2749
I433
sS'aid'
p5988
I43
sS'ful'
p5989
I298
sS'mly'
p5990
I899
sS'tly'
p5991
I129
sS'uit'
p5992
I526
sS'ive'
p5993
I141
sS'avy'
p5994
I598
sg3759
I900
sg1570
I46
sg698
I12
sS'rip'
p5995
I407
sS'rin'
p5996
I487
sS'vor'
p5997
I901
sg706
I17
sS'ave'
p5998
I47
sg191
I527
sS'ric'
p5999
I690
sg709
I91
sg1485
I837
sS'pat'
p6000
I902
sS'ewn'
p6001
I903
sg3778
I434
sg1724
I691
sS'amn'
p6002
I701
sS'ilt'
p6003
I599
sS'300'
p6004
I904
sS'emn'
p6005
I905
sS'pad'
p6006
I906
sS'mor'
p6007
I907
sS'ews'
p6008
I600
sS'ray'
p6009
I528
sS'pam'
p6010
I908
sS'une'
p6011
I885
sS'oin'
p6012
I692
sS'oil'
p6013
I435
sS'dge'
p6014
I351
sS'nic'
p6015
I510
sS'ete'
p6016
I436
sS'ion'
p6017
I67
sS'phy'
p6018
I909
sS'kin'
p6019
I253
sS'nis'
p6020
I910
sS'iod'
p6021
I693
sS'oir'
p6022
I911
sg739
I529
sg3803
I142
sS'thy'
p6023
I530
sg3804
I5
sS'ept'
p6024
I300
sS'ths'
p6025
I367
sS'eps'
p6026
I437
sS'or;'
p6027
I951
sS'thm'
p6028
I912
sS'oft'
p6029
I285
sS'oke'
p6030
I241
sg752
I3
sS'con'
p6031
I887
sS'lin'
p6032
I840
sS'xed'
p6033
I913
sS'lde'
p6034
I914
sS'ort'
p6035
I265
sg453
I45
sS'ldn'
p6036
I266
sS'gun'
p6037
I656
sS'lds'
p6038
I459
sS'apy'
p6039
I760
sS'tch'
p6040
I135
sS'xes'
p6041
I601
sS'uid'
p6042
I602
sg1149
I917
sS'yes'
p6043
I95
sS'yer'
p6044
I697
sg764
I330
sg2831
I460
sS'cus'
p6045
I698
sS'ads'
p6046
I461
sS'ell'
p6047
I102
sS'wed'
p6048
I217
sS'rgy'
p6049
I699
sS'rks'
p6050
I761
sg770
I22
sS'tin'
p6051
I919
sS'eld'
p6052
I262
sS'ady'
p6053
I313
sS'wer'
p6054
I331
sg3840
I700
sS'ade'
p6055
I162
sS'yle'
p6056
I921
sS'rge'
p6057
I302
sS'tus'
p6058
I522
sg3843
I532
sS'adn'
p6059
I332
sS'els'
p6060
I462
sS'elp'
p6061
I333
sg675
I226
sS'hat'
p6062
I15
sS'elt'
p6063
I213
sS'bin'
p6064
I922
sg3371
I923
sS'ops'
p6065
I299
sS'mos'
p6066
I924
sg2852
I303
sS'ffy'
p6067
I925
sS'ame'
p6068
I110
sS'opy'
p6069
I533
sS'nvy'
p6070
I926
sS'pse'
p6071
I463
sS'ope'
p6072
I702
sS'mon'
p6073
I703
sg1814
I304
sS'rns'
p6074
I534
sS'amp'
p6075
I704
sS'ams'
p6076
I604
sS'eez'
p6077
I927
sS'eet'
p6078
I171
sg802
I928
sS'eep'
p6079
I188
sS'ees'
p6080
I235
sg1830
I227
sS'eem'
p6081
I389
sS'eel'
p6082
I195
sS'een'
p6083
I49
sg3156
I705
sS'eek'
p6084
I334
sS'eed'
p6085
I214
sS'igh'
p6086
I393
sg811
I96
sS'ole'
p6087
I369
sS'olf'
p6088
I929
sS'oll'
p6089
I930
sg1019
I606
sg818
I854
sS'alt'
p6090
I626
sS'sk;'
p6091
I932
sS'eze'
p6092
I464
sS'eer'
p6093
I706
sS'ick'
p6094
I228
sS'ddy'
p6095
I707
sS'ich'
p6096
I229
sS'ess'
p6097
I68
sS'ump'
p6098
I617
sg827
I27
sS'pet'
p6099
I935
sg3708
I936
sS'oly'
p6100
I933
sS'ubs'
p6101
I867
sS'per'
p6102
I286
sS'pes'
p6103
I535
sS'ume'
p6104
I607
sS'pen'
p6105
I207
sS'uma'
p6106
I708
sS'umb'
p6107
I536
sS'ped'
p6108
I92
sS'esn'
p6109
I370
sg3425
I809
sS'esk'
p6110
I270
sg3907
I40
sS'esh'
p6111
I352
sg2908
I73
sg1081
I466
sS'zzy'
p6112
I939
sS'rum'
p6113
I940
sS'oes'
p6114
I353
sS'fed'
p6115
I608
sS'ply'
p6116
I287
sS'rue'
p6117
I537
sS'ple'
p6118
I143
sS'cid'
p6119
I696
sS'oel'
p6120
I488
sS'rus'
p6121
I941
sS'ly;'
p6122
I942
sg2924
I183
sS'oed'
p6123
I943
sg1873
I28
sS'eef'
p6124
I944
sg1875
I709
sS'ace'
p6125
I77
sg1878
I467
sS'ack'
p6126
I58
sg1879
I10
sS'ach'
p6127
I172
sS'nde'
p6128
I775
sS'ids'
p6129
I409
sg863
I468
sS'hot'
p6130
I420
sS'idn'
p6131
I137
sg1885
I189
sS'act'
p6132
I489
sS'nds'
p6133
I105
sS'ide'
p6134
I81
sS'mmm'
p6135
I947
sg1892
I93
sS'owl'
p6136
I469
sg3932
I97
sS'aze'
p6137
I454
sS'owd'
p6138
I948
sS'nse'
p6139
I305
sS'son'
p6140
I117
sS'ea;'
p6141
I949
sS'ppy'
p6142
I710
sg3521
I816
sS'nst'
p6143
I288
sS'ows'
p6144
I254
sS'mbs'
p6145
I570
sS'art'
p6146
I148
sS'hew'
p6147
I952
sg2955
I953
sS'rcy'
p6148
I242
sg1912
I20
sS'hes'
p6149
I165
sg3952
I610
sS'lon'
p6150
I711
sS'hey'
p6151
I69
sS'hed'
p6152
I61
sS'los'
p6153
I954
sS'gic'
p6154
I819
sS'low'
p6155
I199
sg897
I75
sS'hem'
p6156
I89
sS'hen'
p6157
I34
sg900
I18
sS'eah'
p6158
I410
sS'eak'
p6159
I319
sg3961
I490
sS'eam'
p6160
I263
sS'eal'
p6161
I391
sS'ean'
p6162
I271
sS'ead'
p6163
I78
sg3965
I35
sS'eaf'
p6164
I712
sS'wns'
p6165
I713
sg3968
I714
sS'eap'
p6166
I956
sS'eas'
p6167
I611
sS'ear'
p6168
I115
sS'eat'
p6169
I149
sg3974
I13
sS'ute'
p6170
I438
sS'uth'
p6171
I190
sS'dom'
p6172
I849
sg2989
I64
sg2990
I306
sS'lve'
p6173
I612
sS'uts'
p6174
I591
sS'mth'
p6175
I614
sg1602
I289
sS'usy'
p6176
I596
sS'ar;'
p6177
I957
sS'cit'
p6178
I958
sS'uty'
p6179
I716
sS'iny'
p6180
I392
sS'rve'
p6181
I491
sS'wds'
p6182
I959
sS'int'
p6183
I355
sS'lps'
p6184
I851
sg3999
I960
sg1966
I107
sg4000
I472
sS'nna'
p6185
I961
sS'ins'
p6186
I230
sS'fly'
p6187
I546
sg1971
I24
sg1974
I23
sS'nny'
p6188
I492
sS'ink'
p6189
I166
sS'ind'
p6190
I79
sS'ine'
p6191
I150
sS'ing'
p6192
I7
sS'nty'
p6193
I358
sS'ina'
p6194
I964
sS'yon'
p6195
I539
sS'oad'
p6196
I272
sg4013
I221
sg1756
I87
sS'oan'
p6197
I965
sg2517
I966
sg317
I689
sS'nal'
p6198
I320
sS'gry'
p6199
I493
sS'til'
p6200
I290
sS'nap'
p6201
I719
sS'oat'
p6202
I208
sg1993
I967
sg3846
I968
sS'igo'
p6203
I720
sS'ign'
p6204
I307
sg1994
I36
sg492
I721
sS'tic'
p6205
I390
sS'ubt'
p6206
I722
sg975
I32
sg976
I41
sg689
I754
sS'in;'
p6207
I723
sS'ote'
p6208
I597
sS'ube'
p6209
I616
sS'est'
p6210
I155
sS'id:'
p6211
I724
sg989
I209
sg4040
I687
sS'er;'
p6212
I950
sS'ize'
p6213
I378
sg3042
I439
sg2991
I971
sg3045
I972
sS'ums'
p6214
I973
sg3048
I191
sS'rer'
p6215
I975
sg327
I541
sS'ags'
p6216
I725
sS'kip'
p6217
I976
sa(lp6218
g2239
ag383
ag648
ag752
ag266
ag3804
ag1468
ag6192
ag2443
ag2056
ag1879
ag2262
ag698
ag3974
ag174
ag6062
ag2584
ag706
ag900
ag5728
ag1912
ag5632
ag770
ag1974
ag1971
ag1035
ag5929
ag827
ag1873
ag5723
ag5642
ag5789
ag975
ag5681
ag6157
ag3965
ag1994
ag2602
ag3621
ag5539
ag3907
ag976
ag5987
ag5988
ag5736
ag453
ag1570
ag5998
ag1406
ag6083
ag5563
ag5506
ag5933
ag5948
ag5545
ag3671
ag2031
ag5488
ag6126
ag5927
ag5551
ag6152
ag1315
ag5591
ag2989
ag5661
ag5628
ag6017
ag6097
ag6151
ag5756
ag5608
ag5857
ag2908
ag5905
ag897
ag5494
ag6125
ag6163
ag6190
ag2629
ag6134
ag1314
ag1257
ag5613
ag5619
ag5800
ag1756
ag5906
ag6156
ag5690
ag709
ag6108
ag1892
ag1246
ag6043
ag811
ag3932
ag5571
ag5627
ag1188
ag5734
ag6047
ag5943
ag5737
ag6133
ag5860
ag1966
ag5640
ag2627
ag6068
ag5634
ag5958
ag5693
ag5842
ag6168
ag5552
ag6140
ag5501
ag5567
ag5881
ag5517
ag5816
ag832
ag5561
ag5589
ag5985
ag5601
ag86
ag5991
ag5775
ag394
ag590
ag5767
ag5782
ag6040
ag5897
ag6131
ag5578
ag195
ag1486
ag5993
ag3803
ag6118
ag5509
ag5722
ag527
ag1562
ag6146
ag6169
ag6191
ag5612
ag5684
ag339
ag5966
ag6210
ag5646
ag5659
ag3349
ag5878
ag5980
ag5511
ag6055
ag2173
ag5822
ag6149
ag6189
ag5762
ag5940
ag5971
ag1969
ag6078
ag6127
ag5573
ag2230
ag3360
ag5950
ag1054
ag5745
ag480
ag5873
ag5624
ag5799
ag2924
ag5630
ag5688
ag5779
ag3532
ag6079
ag1885
ag6171
ag3048
ag5492
ag5733
ag5888
ag6082
ag5558
ag5570
ag5772
ag6155
ag3216
ag5703
ag5738
ag5904
ag5710
ag5768
ag5827
ag6105
ag6202
ag989
ag5668
ag5721
ag5727
ag6063
ag6085
ag5983
ag5536
ag6048
ag5942
ag5651
ag5910
ag4013
ag5543
ag3172
ag5534
ag5846
ag675
ag1830
ag6094
ag6096
ag6186
ag5491
ag3074
ag5675
ag5955
ag6080
ag5705
ag5898
ag5899
ag5920
ag5935
ag6030
ag6148
ag2068
ag5753
ag5564
ag5909
ag5702
ag5791
ag3491
ag5853
ag5953
ag5974
ag6019
ag6144
ag5546
ag5748
ag5751
ag5761
ag5814
ag5559
ag5504
ag6052
ag6160
ag2116
ag6035
ag6036
ag5896
ag5922
ag5672
ag6110
ag6162
ag6196
ag1024
ag1064
ag5635
ag5593
ag5616
ag5731
ag5757
ag5770
ag5783
ag3542
ag5862
ag5863
ag6029
ag6102
ag6116
ag6143
ag1602
ag6200
ag5657
ag5730
ag5776
ag5778
ag5798
ag5870
ag5877
ag5989
ag6065
ag6024
ag5885
ag6057
ag2852
ag1814
ag6139
ag2990
ag6204
ag5752
ag5808
ag1481
ag5820
ag5851
ag6053
ag5921
ag5924
ag5965
ag5977
ag5981
ag6159
ag6198
ag3118
ag5743
ag5629
ag5636
ag5679
ag5815
ag1489
ag5839
ag2701
ag764
ag6054
ag6059
ag6061
ag6084
ag5557
ag5555
ag5596
ag5606
ag5617
ag5641
ag5872
ag2618
ag5805
ag5852
ag5858
ag5883
ag5884
ag5926
ag5916
ag5938
ag6014
ag6111
ag6114
ag5602
ag6183
ag5499
ag5526
ag6193
ag5720
ag5618
ag218
ag5680
ag1290
ag5771
ag5794
ag5923
ag6025
ag5893
ag6087
ag6109
ag5508
ag5529
ag5537
ag5542
ag1115
ag5662
ag5683
ag6213
ag5750
ag5755
ag2162
ag5823
ag549
ag5919
ag5936
ag5951
ag5954
ag5574
ag6081
ag6205
ag6161
ag6180
ag6086
ag5486
ag5493
ag5582
ag5790
ag5621
ag5650
ag5660
ag5732
ag173
ag1925
ag5817
ag5742
ag5939
ag5995
ag5949
ag6129
ag6158
ag5495
ag5560
ag5565
ag3584
ag5588
ag5600
ag2168
ag5622
ag3280
ag6130
ag5694
ag5695
ag3398
ag5744
ag2625
ag433
ag5856
ag5882
ag5889
ag550
ag3668
ag1114
ag2749
ag3778
ag6013
ag6016
ag6026
ag6170
ag3042
ag5505
ag5541
ag591
ag5568
ag5572
ag5638
ag5673
ag5516
ag2400
ag5804
ag5868
ag5874
ag543
ag2610
ag6137
ag5941
ag5967
ag5871
ag5986
ag6038
ag2831
ag6046
ag6060
ag6071
ag6092
ag5836
ag1081
ag1878
ag863
ag6136
ag5975
ag5556
ag4000
ag3282
ag1234
ag5671
ag5678
ag1061
ag5747
ag5763
ag5592
ag5788
ag5876
ag5900
ag5946
ag5959
ag5944
ag5996
ag6120
ag6132
ag3961
ag6181
ag6188
ag6199
ag5512
ag5519
ag5520
ag5527
ag107
ag5583
ag5598
ag5637
ag5649
ag5652
ag5784
ag5689
ag5692
ag5708
ag303
ag5715
ag6015
ag5749
ag5828
ag5829
ag2521
ag5833
ag5840
ag5855
ag5892
ag5901
ag5918
ag582
ag6058
ag1627
ag610
ag5979
ag5992
ag191
ag6009
ag739
ag6023
ag616
ag3843
ag6069
ag6074
ag6103
ag6107
ag6117
ag3729
ag6195
ag5976
ag327
ag5487
ag5502
ag335
ag2992
ag6187
ag5739
ag5740
ag5544
ag5549
ag5576
ag5639
ag5579
ag5584
ag5780
ag5615
ag5625
ag5643
ag5655
ag364
ag5664
ag1233
ag5674
ag5969
ag1302
ag5707
ag5665
ag1346
ag5713
ag6145
ag5514
ag5741
ag5754
ag5760
ag5891
ag2102
ag5758
ag5802
ag5810
ag5811
ag5812
ag5813
ag5548
ag5793
ag5843
ag5850
ag2645
ag1426
ag556
ag5895
ag6174
ag5773
ag5928
ag624
ag5963
ag6176
ag6208
ag5994
ag6003
ag6008
ag6041
ag6042
ag5547
ag6076
ag5821
ag1019
ag6104
ag6115
ag5735
ag3952
ag6167
ag6173
ag5917
ag6175
ag5670
ag6209
ag6098
ag5490
ag1011
ag5496
ag5497
ag5503
ag5525
ag5528
ag1068
ag6090
ag5550
ag3164
ag5569
ag101
ag105
ag5580
ag5581
ag2796
ag5597
ag5603
ag5609
ag5610
ag5626
ag170
ag5631
ag5766
ag5648
ag3276
ag5654
ag5656
ag5719
ag5669
ag223
ag5685
ag5697
ag2329
ag5712
ag5714
ag5716
ag6037
ag5522
ag5764
ag5765
ag5769
ag1454
ag3490
ag5806
ag5819
ag2787
ag5845
ag1090
ag5865
ag3578
ag5880
ag1455
ag5902
ag5913
ag5914
ag5903
ag5931
ag1616
ag5937
ag5952
ag5961
ag5604
ag5970
ag5645
ag1474
ag2857
ag2724
ag4040
ag5982
ag317
ag5999
ag1724
ag6012
ag6021
ag5826
ag5960
ag6119
ag6044
ag6045
ag6049
ag3840
ag6002
ag6072
ag6073
ag6075
ag3156
ag6093
ag6095
ag6106
ag1875
ag6142
ag6150
ag6164
ag6165
ag3968
ag2994
ag6179
ag5848
ag4017
ag6201
ag6203
ag492
ag6206
ag6207
ag6211
ag6216
ag2099
ag5485
ag5489
ag3062
ag5498
ag5500
ag5510
ag5513
ag5515
ag5686
ag5523
ag5524
ag1048
ag5530
ag5531
ag5532
ag5533
ag5535
ag5538
ag5540
ag5831
ag5562
ag2746
ag5553
ag2573
ag5554
ag5825
ag5566
ag689
ag5575
ag5585
ag5586
ag5587
ag5590
ag6039
ag6050
ag5594
ag5595
ag5599
ag5746
ag5605
ag5607
ag5611
ag1239
ag69
ag5844
ag5633
ag5577
ag5644
ag6128
ag1015
ag1714
ag5658
ag5663
ag5666
ag1409
ag5676
ag5682
ag5777
ag5687
ag5691
ag1285
ag1610
ag262
ag5696
ag5698
ag5699
ag5700
ag5701
ag5704
ag606
ag5706
ag5711
ag1334
ag1338
ag5717
ag5724
ag5725
ag5726
ag5729
ag338
ag5620
ag5507
ag3425
ag5781
ag5667
ag5677
ag5774
ag5718
ag390
ag3521
ag5866
ag5792
ag6154
ag5786
ag5787
ag1432
ag5973
ag5837
ag1437
ag2405
ag5795
ag5797
ag5861
ag2582
ag5890
ag5803
ag5807
ag5809
ag662
ag5818
ag1485
ag5824
ag5915
ag6032
ag3731
ag5830
ag5832
ag5834
ag5838
ag5841
ag2535
ag2300
ag6172
ag5847
ag6184
ag5849
ag5854
ag818
ag5859
ag5864
ag5867
ag5869
ag3785
ag5875
ag2544
ag5879
ag1557
ag2123
ag5887
ag2597
ag6101
ag5894
ag5796
ag5907
ag5908
ag5623
ag5911
ag5912
ag1301
ag5968
ag5925
ag5930
ag600
ag5932
ag3672
ag5934
ag5945
ag5947
ag6011
ag3810
ag6031
ag5956
ag5957
ag5964
ag5972
ag3719
ag2714
ag1798
ag5978
ag2738
ag5521
ag5984
ag5990
ag3759
ag5997
ag6000
ag6001
ag6004
ag6005
ag6006
ag6007
ag6010
ag6018
ag6020
ag6022
ag6028
ag6033
ag6034
ag5709
ag2156
ag1149
ag5801
ag6051
ag5886
ag6056
ag6064
ag3371
ag6066
ag6067
ag6070
ag6077
ag802
ag6088
ag6089
ag5835
ag6091
ag6100
ag5962
ag6099
ag3708
ag978
ag5518
ag6112
ag6113
ag6121
ag6122
ag6123
ag6124
ag5647
ag5653
ag6135
ag6138
ag6141
ag6212
ag6027
ag6147
ag2955
ag6153
ag5785
ag6166
ag6177
ag6178
ag6182
ag3999
ag6185
ag1970
ag4008
ag6194
ag6197
ag2517
ag1993
ag3846
ag5759
ag5614
ag2991
ag3045
ag6214
ag486
ag6215
ag6217
aa(dp6219
S'PRP$'
p6220
I14
sS'VBG'
p6221
I19
sS'VBD'
p6222
I6
sS'``'
p6223
I24
sS'VBN'
p6224
I17
sS'POS'
p6225
I30
sS"''"
p6226
I20
sS'VBP'
p6227
I21
sS'WDT'
p6228
I31
sS'JJ'
p6229
I9
sS'WP'
p6230
I29
sS'VBZ'
p6231
I22
sS'DT'
p6232
I4
sg383
I1
sS'RP'
p6233
I26
sS'NN'
p6234
I2
sS'FW'
p6235
I15
sS','
p6236
I10
sS'.'
p6237
I5
sS'TO'
p6238
I18
sg2239
I0
sS'LS'
p6239
I16
sS'RB'
p6240
I8
sS':'
p6241
I28
sS'NNS'
p6242
I12
sS'PRP'
p6243
I7
sS'VB'
p6244
I11
sS'WRB'
p6245
I27
sS'CC'
p6246
I13
sS'PDT'
p6247
I36
sS'RBS'
p6248
I40
sS'RBR'
p6249
I34
sS'CD'
p6250
I25
sS'EX'
p6251
I33
sS'IN'
p6252
I3
sS'MD'
p6253
I23
sS'JJS'
p6254
I35
sS'JJR'
p6255
I32
sS'SYM'
p6256
I39
sS'UH'
p6257
I37
sS'NNP'
p6258
I38
sa(lp6259
g2239
ag383
ag6234
ag6252
ag6232
ag6237
ag6222
ag6243
ag6240
ag6229
ag6236
ag6244
ag6242
ag6246
ag6220
ag6235
ag6239
ag6224
ag6238
ag6221
ag6226
ag6227
ag6231
ag6253
ag6223
ag6250
ag6233
ag6245
ag6241
ag6230
ag6225
ag6228
ag6255
ag6251
ag6249
ag6254
ag6247
ag6257
ag6258
ag6256
ag6248
aa.