(lp0
(dp1
S'limited'
p2
I1815
sS'selor'
p3
I3131
sS'hats'
p4
I1816
sS'dynamic'
p5
I1818
sS'swirls'
p6
I1819
sS'yellow'
p7
I723
sS'four'
p8
I414
sS'protest'
p9
I1169
sS'sleep'
p10
I455
sS'hanging'
p11
I1170
sS'woody'
p12
I1820
sS'saved'
p13
I888
sS'quizzical'
p14
I3076
sS'increase'
p15
I1822
sS'"at'
p16
I1823
sS'patches'
p17
I1825
sS'fingernails'
p18
I1172
sS'bike'
p19
I1173
sS'thinness'
p20
I1827
sS'daze'
p21
I1828
sS'under'
p22
I373
sS'sorry'
p23
I456
sS'plaintive'
p24
I1829
sS'worth'
p25
I1830
sS'"ai'
p26
I1831
sS'softener'
p27
I1832
sS'lack'
p28
I2926
sS'intermingling'
p29
I1833
sS'risk'
p30
I1834
sS'"clem'
p31
I1174
sS'pages'
p32
I2638
sS'cornfields'
p33
I1836
sS'pierce'
p34
I3323
sS'covert'
p35
I2319
sS'every'
p36
I191
sS'wich'
p37
I3703
sS'frailty'
p38
I1838
sS'stabbed'
p39
I1839
sS'fireplace'
p40
I1840
sS'encounter'
p41
I1210
sS'founded'
p42
I2927
sS'school'
p43
I595
sS'uttering'
p44
I1843
sS'grains'
p45
I3326
sS'motorcyclist'
p46
I889
sS'fondly'
p47
I1845
sS'glues'
p48
I1847
sS'flashy'
p49
I1848
sS'intens'
p50
I1849
sS'heading'
p51
I1850
sS'clothes'
p52
I1175
sS'enjoy'
p53
I1176
sS'chew'
p54
I1851
sS'parted'
p55
I1852
sS'glassy'
p56
I1853
sS'force'
p57
I1177
sS'faintest'
p58
I1178
sS'tired'
p59
I1854
sS'awake'
p60
I1813
sS'miller'
p61
I294
sS'reacted'
p62
I4066
sS'bubbling'
p63
I1855
sS'bacon'
p64
I1856
sS'frosted'
p65
I1857
sS'horn'
p66
I1179
sS'surrounding'
p67
I1859
sS'second'
p68
I415
sS'louder'
p69
I913
sS'kidnap'
p70
I1860
sS'theory'
p71
I774
sS'even'
p72
I120
sS'hide'
p73
I891
sS'deliberate'
p74
I1861
sS'solemn'
p75
I1862
sS'hate'
p76
I1863
sS'cooking'
p77
I921
sS'serrated'
p78
I1865
sS'fingers'
p79
I920
sS'poison'
p80
I1866
sS'lights'
p81
I596
sS'haze'
p82
I1867
sS'above'
p83
I520
sS'blur'
p84
I1254
sS'new'
p85
I192
sS'net'
p86
I1869
sS'increasing'
p87
I1182
sS'ever'
p88
I234
sS'told'
p89
I180
sS'hero'
p90
I1871
sS'avert'
p91
I1872
sS'quietened'
p92
I1873
sS'pancakes'
p93
I1183
sS'inhaled'
p94
I2560
sS'never'
p95
I121
sS'stared'
p96
I274
sS'here'
p97
I88
sS'hundreds'
p98
I1875
sS'wackjob'
p99
I1876
sS'met'
p100
I1184
sS'fairly'
p101
I2207
sS'bookcase'
p102
I1878
sS'path'
p103
I1185
sS'100'
p104
I1186
sS'cardboard'
p105
I1879
sS'dry'
p106
I725
sS'kids'
p107
I611
sS'daughter'
p108
I1188
sS'oozes'
p109
I1881
sS'buckled'
p110
I1883
sS'leaves'
p111
I893
sS'climbed'
p112
I894
sS'"why'
p113
I1884
sS'inwardly'
p114
I2154
sS'deers'
p115
I1885
sS'published'
p116
I2991
sS'recognised'
p117
I4031
sS'smoke'
p118
I895
sS"i'm"
p119
I597
sS'settled'
p120
I1290
sS'golden'
p121
I1887
sS'prints'
p122
I1190
sS'formulating'
p123
I3644
sS'slices'
p124
I1888
sS'explained'
p125
I1889
sS'cloistered'
p126
I1890
sS'angrily'
p127
I2236
sS'brought'
p128
I587
sS'visible'
p129
I1300
sS'specifics'
p130
I1892
sS'pound'
p131
I1893
sS'glance'
p132
I1894
sS'landscape'
p133
I1193
sS'meaty'
p134
I1895
sS'spoke'
p135
I727
sS'would'
p136
I36
sS'army'
p137
I1180
sS'hospital'
p138
I598
sS'indians'
p139
I1898
sS'arms'
p140
I235
sS'steering'
p141
I1128
sS'call'
p142
I383
sS'calm'
p143
I458
sS'strike'
p144
I1900
sS'tell'
p145
I301
sS'slaughtered'
p146
I1901
sS'separated'
p147
I1195
sS'incredibly'
p148
I3978
sS'whatsoever'
p149
I1903
sS'lungs'
p150
I620
sS'relax'
p151
I2331
sS'trousers'
p152
I1905
sS'jackals'
p153
I3275
sS'billowing'
p154
I1907
sS'aware'
p155
I621
sS'glass'
p156
I374
sS'warm'
p157
I375
sS'defeated'
p158
I2190
sS'breaths'
p159
I1196
sS'allies'
p160
I2457
sS'hole'
p161
I1335
sS'hold'
p162
I599
sS'sped'
p163
I728
sS'supplemental'
p164
I1912
sS'must'
p165
I202
sS'shoot'
p166
I763
sS'word'
p167
I961
sS'room'
p168
I350
sS'divorced'
p169
I1915
sS'brewed'
p170
I1916
sS'work'
p171
I376
sS'mi'
p172
I1197
sS'roof'
p173
I1917
sS'movies'
p174
I1918
sS'mr'
p175
I428
sS'my'
p176
I10
sS'could'
p177
I66
sS'scavenge'
p178
I1920
sS'shook'
p179
I377
sS'sinking'
p180
I1921
sS'vodka'
p181
I1922
sS'quiver'
p182
I1923
sS'give'
p183
I459
sS'indif'
p184
I1924
sS'wrenches'
p185
I1925
sS'honey'
p186
I1199
sS'liter'
p187
I1926
sS'caused'
p188
I2925
sS'want'
p189
I127
sS'wrenched'
p190
I898
sS'cavorted'
p191
I1927
sS'times'
p192
I275
sS'busch'
p193
I1928
sS'totaled'
p194
I729
sS'worse'
p195
I656
sS'orbs'
p196
I3387
sS'end'
p197
I169
sS'thing'
p198
I166
sS'complaining'
p199
I1930
sS'agony'
p200
I1931
sS'drying'
p201
I1774
sS'how'
p202
I122
sS'hot'
p203
I1381
sS'salivate'
p204
I1934
sS'hesitatingly'
p205
I3624
sS'answer'
p206
I730
sS'disappoint'
p207
I1935
sS'"bait'
p208
I3151
sS'preferable'
p209
I1937
sS'massive'
p210
I1399
sS'oceans'
p211
I1877
sS'beauty'
p212
I1200
sS'mess'
p213
I900
sS'proach'
p214
I1939
sS'ladder'
p215
I86
sS'after'
p216
I144
sS'damaged'
p217
I2199
sS'less'
p218
I518
sS'bared'
p219
I1941
sS'wrong'
p220
I461
sS'lay'
p221
I731
sS'curiosity'
p222
I1942
sS'biting'
p223
I698
sS'lap'
p224
I1943
sS'plies'
p225
I1944
sS'chilled'
p226
I2592
sS'attempt'
p227
I1201
sS'choking'
p228
I3342
sS'third'
p229
I1203
sS'weekender'
p230
I193
sS'wins'
p231
I1946
sS'spout'
p232
I1947
sS'appreciate'
p233
I1204
sS'psychologist'
p234
I2948
sS'sliced'
p235
I1298
sS'think'
p236
I142
sS'sickening'
p237
I1949
sS'wink'
p238
I1950
sS'green'
p239
I432
sS'phrased'
p240
I1929
sS'keeps'
p241
I882
sS'aloud'
p242
I1207
sS'order'
p243
I1953
sS'wind'
p244
I276
sS'wine'
p245
I1208
sS'suspender'
p246
I1954
sS'breathe'
p247
I3843
sS'kick'
p248
I3967
sS'office'
p249
I522
sS'scalding'
p250
I3720
sS'polaroid'
p251
I1956
sS'over'
p252
I92
sS'greyness'
p253
I2663
sS'tricked'
p254
I1211
sS'underside'
p255
I1957
sS'oven'
p256
I1960
sS'windshield'
p257
I901
sS'digest'
p258
I1961
sS'before'
p259
I98
sS'glances'
p260
I1432
sS'forehead'
p261
I937
sS'toothy'
p262
I1963
sS'plainly'
p263
I3722
sS'fit'
p264
I1964
sS'somewhere'
p265
I732
sS'screaming'
p266
I1965
sS'backpack'
p267
I1966
sS','
p268
I2
sS'writing'
p269
I902
sS'better'
p270
I523
sS'tilts'
p271
I1967
sS'differently'
p272
I1440
sS'glanced'
p273
I601
sS'whips'
p274
I1969
sS'weeks'
p275
I1016
sS'easier'
p276
I1214
sS'bunching'
p277
I1970
sS'split'
p278
I1498
sS'then'
p279
I58
sS'them'
p280
I51
sS'tourist'
p281
I903
sS'combination'
p282
I1971
sS'similar'
p283
I3477
sS'unemployed'
p284
I1972
sS'safe'
p285
I1216
sS'wooded'
p286
I1974
sS'break'
p287
I602
sS'roommate'
p288
I1975
sS'therapy'
p289
I1976
sS'owned'
p290
I3723
sS'they'
p291
I42
sS'aromas'
p292
I3576
sS'glazed'
p293
I1979
sS'altogether'
p294
I1980
sS'yourself'
p295
I1981
sS'silver'
p296
I1982
sS'smoking'
p297
I3906
sS'shadows'
p298
I904
sS'stinking'
p299
I1983
sS'meat'
p300
I1984
sS'oxygen'
p301
I1985
sS'brightness'
p302
I1986
sS'regularly'
p303
I1987
sS'softens'
p304
I1988
sS'l'
p305
I733
sS'alexis'
p306
I1991
sS'filling'
p307
I1465
sS'leaned'
p308
I734
sS'hardback'
p309
I1994
sS'each'
p310
I164
sS'went'
p311
I295
sS'side'
p312
I128
sS'bone'
p313
I735
sS'luck'
p314
I524
sS'spiralling'
p315
I1593
sS'tatty'
p316
I1996
sS'mangled'
p317
I1217
sS'tip'
p318
I1587
sS'snaked'
p319
I1997
sS'literature'
p320
I1594
sS'forgot'
p321
I1998
sS'ghosts'
p322
I1218
sS'saturday'
p323
I1219
sS'lugged'
p324
I1999
sS'footfalls'
p325
I1902
sS'driving'
p326
I1220
sS'god'
p327
I805
sS'motel'
p328
I2002
sS'hooked'
p329
I1359
sS'forty'
p330
I1222
sS'fellows'
p331
I1223
sS'content'
p332
I905
sS're'
p333
I222
sS'laid'
p334
I2003
sS'adjust'
p335
I2955
sS"'em"
p336
I2581
sS'got'
p337
I99
sS'washes'
p338
I1224
sS'twice'
p339
I2006
sS'subsiding'
p340
I1225
sS'calmest'
p341
I2007
sS'agonising'
p342
I2008
sS'grease'
p343
I2009
sS'turning'
p344
I906
sS'prepare'
p345
I3716
sS'little'
p346
I138
sS'free'
p347
I525
sS'fred'
p348
I443
sS'slivers'
p349
I2268
sS'splashes'
p350
I1507
sS'hoodie'
p351
I2012
sS'skeletal'
p352
I2952
sS'returning'
p353
I2945
sS'wanted'
p354
I204
sS'greasy'
p355
I1510
sS'enormous'
p356
I2014
sS'ate'
p357
I3126
sS'shelves'
p358
I1227
sS'starts'
p359
I907
sS'lous'
p360
I2016
sS'days'
p361
I236
sS'"this'
p362
I2017
sS'"no'
p363
I1229
sS'isn'
p364
I1786
sS'moving'
p365
I2019
sS'onto'
p366
I343
sS'bite'
p367
I1230
sS'speeds'
p368
I2020
sS'reemerge'
p369
I2958
sS'already'
p370
I417
sS'disfigured'
p371
I2022
sS'strips'
p372
I2932
sS'unlit'
p373
I2023
sS'comforted'
p374
I2024
sS'hearing'
p375
I1231
sS'hook'
p376
I736
sS'featured'
p377
I2025
sS'another'
p378
I344
sS'wasn'
p379
I277
sS'millers'
p380
I1232
sS'thick'
p381
I908
sS'hood'
p382
I2026
sS'magnificent'
p383
I2027
sS'ten'
p384
I1050
sS'activities'
p385
I2943
sS'faced'
p386
I3900
sS'top'
p387
I603
sS'crunches'
p388
I2029
sS'girls'
p389
I1233
sS'tow'
p390
I2030
sS'fiction'
p391
I2031
sS'needed'
p392
I604
sS'disappointed'
p393
I2800
sS'too'
p394
I82
sS'legs'
p395
I170
sS'bitter'
p396
I910
sS'warms'
p397
I2792
sS'rummaged'
p398
I2034
sS'listen'
p399
I2035
sS'curtains'
p400
I2036
sS'moisture'
p401
I1333
sS'ted'
p402
I2963
sS'frowned'
p403
I2040
sS'took'
p404
I205
sS'nearing'
p405
I2964
sS'motionless'
p406
I3358
sS'somewhat'
p407
I2041
sS'wasted'
p408
I1235
sS'peculiar'
p409
I2042
sS'sarcastically'
p410
I2043
sS'daren'
p411
I3359
sS'begins'
p412
I675
sS'mercy'
p413
I181
sS'anxiety'
p414
I2045
sS'cruelly'
p415
I2046
sS'showed'
p416
I912
sS'matted'
p417
I2047
sS'bloated'
p418
I1236
sS'tree'
p419
I93
sS'bitterness'
p420
I2048
sS'tourists'
p421
I2049
sS'matter'
p422
I737
sS'street'
p423
I457
sS'silly'
p424
I1237
sS'sheen'
p425
I2050
sS'wisps'
p426
I2051
sS'tion'
p427
I914
sS'feeling'
p428
I325
sS'powers'
p429
I1238
sS'unintended'
p430
I2052
sS'sees'
p431
I2053
sS'ran'
p432
I462
sS'navigate'
p433
I2055
sS'mind'
p434
I296
sS'mine'
p435
I463
sS'anybody'
p436
I2056
sS'talking'
p437
I464
sS'dozed'
p438
I2057
sS'arousal'
p439
I2058
sS'seen'
p440
I249
sS'seem'
p441
I378
sS'sounding'
p442
I1239
sS'possible'
p443
I4028
sS'dozen'
p444
I1240
sS'forced'
p445
I915
sS'quieter'
p446
I2060
sS'strength'
p447
I2061
sS'genuine'
p448
I1241
sS'laden'
p449
I3360
sS'clenched'
p450
I2063
sS'soaked'
p451
I2064
sS'snow'
p452
I1457
sS'chest'
p453
I465
sS'coldness'
p454
I1243
sS'laughed'
p455
I345
sS'shining'
p456
I916
sS'lamps'
p457
I2428
sS'circles'
p458
I2066
sS'blue'
p459
I297
sS'crumpled'
p460
I2067
sS'nobody'
p461
I2068
sS'pricks'
p462
I3364
sS'lion'
p463
I3750
sS'though'
p464
I206
sS'tormenting'
p465
I2070
sS'corpse'
p466
I3999
sS'audition'
p467
I2072
sS'regular'
p468
I2073
sS'mouth'
p469
I139
sS'addict'
p470
I2074
sS'plenty'
p471
I738
sS'circled'
p472
I2075
sS'coin'
p473
I3453
sS'"both'
p474
I2077
sS'grave'
p475
I2078
sS'glow'
p476
I1244
sS'peers'
p477
I2079
sS'don'
p478
I145
sS'nostrils'
p479
I2080
sS'ridicu'
p480
I3368
sS'calculated'
p481
I2081
sS'camp'
p482
I2082
sS'metal'
p483
I318
sS'dog'
p484
I2083
sS'newcomers'
p485
I2084
sS'appalled'
p486
I3369
sS'singed'
p487
I2085
sS'deeply'
p488
I810
sS'breathed'
p489
I917
sS'scream'
p490
I379
sS'came'
p491
I171
sS'saying'
p492
I918
sS'beaten'
p493
I1245
sS'bait'
p494
I278
sS'towering'
p495
I3093
sS'hunger'
p496
I919
sS'insects'
p497
I1246
sS'ending'
p498
I3539
sS'pops'
p499
I1247
sS'waking'
p500
I3555
sS'showing'
p501
I3396
sS'radio'
p502
I1248
sS'stepping'
p503
I1249
sS'yellowing'
p504
I2086
sS'earth'
p505
I346
sS'peddle'
p506
I2087
sS'chewed'
p507
I2088
sS'enjoyed'
p508
I1250
sS'toast'
p509
I1251
sS'busy'
p510
I922
sS'clicked'
p511
I2090
sS'painfully'
p512
I2091
sS'shuffling'
p513
I2093
sS'explain'
p514
I923
sS'folded'
p515
I924
sS'bust'
p516
I2094
sS'appreciated'
p517
I2095
sS'touched'
p518
I692
sS'wizened'
p519
I1252
sS'heartily'
p520
I2098
sS'mouthfuls'
p521
I3615
sS'rectangle'
p522
I2099
sS'wearing'
p523
I606
sS'do'
p524
I76
sS'10'
p525
I2100
sS'beater'
p526
I1868
sS'stop'
p527
I347
sS'umbilical'
p528
I925
sS'pocket'
p529
I527
sS'pierced'
p530
I2102
sS'"sorry'
p531
I2103
sS'clumsiness'
p532
I2104
sS'cushion'
p533
I2105
sS'despite'
p534
I528
sS'report'
p535
I1255
sS'vividly'
p536
I2106
sS'considerate'
p537
I2107
sS'sabrina'
p538
I2108
sS'implored'
p539
I3993
sS'runs'
p540
I2109
sS'bar'
p541
I529
sS'spilling'
p542
I1256
sS'covering'
p543
I2110
sS'fields'
p544
I926
sS'hello'
p545
I2111
sS'rumbling'
p546
I3376
sS'patch'
p547
I1258
sS'bag'
p548
I380
sS'bad'
p549
I466
sS'softly'
p550
I2113
sS'rune'
p551
I2114
sS'gears'
p552
I2115
sS'rung'
p553
I739
sS'release'
p554
I1259
sS'bam'
p555
I927
sS'boarded'
p556
I2116
sS'ears'
p557
I1260
sS'fragrant'
p558
I2117
sS'blew'
p559
I2118
sS'dustbin'
p560
I2119
sS'irritable'
p561
I2470
sS'crescents'
p562
I2121
sS'splotches'
p563
I1261
sS'decided'
p564
I1262
sS'radius'
p565
I2122
sS'result'
p566
I2123
sS'clem'
p567
I83
sS'fail'
p568
I2124
sS'spattered'
p569
I2125
sS'rivulets'
p570
I2126
sS'best'
p571
I929
sS'dreamscape'
p572
I2127
sS'pete'
p573
I530
sS'said'
p574
I28
sS'draws'
p575
I1263
sS'pressured'
p576
I1264
sS'lots'
p577
I1265
sS'away'
p578
I108
sS'caved'
p579
I2128
sS'mud'
p580
I740
sS'unable'
p581
I1140
sS'finger'
p582
I930
sS'hopefully'
p583
I2130
sS'drawn'
p584
I2132
sS'"of'
p585
I2134
sS'glossy'
p586
I2605
sS'preserve'
p587
I2135
sS'claws'
p588
I931
sS'we'
p589
I87
sS'men'
p590
I1266
sS'triples'
p591
I2136
sS'rollercoaster'
p592
I3754
sS'nature'
p593
I2138
sS'rolled'
p594
I741
sS'smelled'
p595
I607
sS'herrera'
p596
I742
sS'fruits'
p597
I2606
sS'however'
p598
I419
sS'wi'
p599
I2139
sS'boss'
p600
I531
sS'cards'
p601
I2607
sS'drew'
p602
I2141
sS'news'
p603
I1267
sS'picking'
p604
I1268
sS'roller'
p605
I2142
sS'kitchen'
p606
I608
sS'pity'
p607
I1269
sS'cop'
p608
I743
sS'protect'
p609
I2143
sS'accident'
p610
I2144
sS'brown'
p611
I2145
sS'excrement'
p612
I2146
sS'fault'
p613
I2147
sS'cup'
p614
I839
sS'throb'
p615
I3564
sS'movement'
p616
I1504
sS'against'
p617
I237
sS'merging'
p618
I2151
sS'planned'
p619
I1270
sS'faces'
p620
I1769
sS'com'
p621
I1271
sS'asked'
p622
I105
sS'presumably'
p623
I2155
sS'"please'
p624
I2156
sS'appeared'
p625
I2157
sS'drooped'
p626
I3388
sS'vain'
p627
I1272
sS'vast'
p628
I2158
sS'seizure'
p629
I2159
sS'height'
p630
I533
sS'"and'
p631
I2160
sS'karen'
p632
I151
sS'wider'
p633
I932
sS'loaded'
p634
I2161
sS'humming'
p635
I1824
sS'trust'
p636
I609
sS'stares'
p637
I2163
sS'speak'
p638
I744
sS'bathroom'
p639
I610
sS'yellowed'
p640
I2164
sS'beggar'
p641
I3761
sS'beef'
p642
I2165
sS'"you'
p643
I420
sS'mythological'
p644
I2166
sS'dusting'
p645
I2167
sS'three'
p646
I208
sS'been'
p647
I47
sS'quickly'
p648
I421
sS'ting'
p649
I2168
sS'beer'
p650
I1274
sS'startled'
p651
I1047
sS'interest'
p652
I1275
sS'"cause'
p653
I2169
sS'expected'
p654
I745
sS'canopy'
p655
I3884
sS'lovely'
p656
I2170
sS'warmth'
p657
I933
sS'threw'
p658
I467
sS'life'
p659
I209
sS'easy'
p660
I934
sS'drugs'
p661
I1276
sS'sag'
p662
I2171
sS'emotionless'
p663
I3666
sS'uncommon'
p664
I2172
sS'lice'
p665
I2614
sS'strewn'
p666
I2819
sS'jewels'
p667
I2615
sS'hollowed'
p668
I2175
sS'child'
p669
I746
sS'catch'
p670
I468
sS'worked'
p671
I612
sS'contortion'
p672
I2459
sS'chill'
p673
I935
sS'exception'
p674
I2177
sS'has'
p675
I165
sS'contemplated'
p676
I1278
sS'air'
p677
I157
sS'strangest'
p678
I2179
sS'ugly'
p679
I2180
sS'near'
p680
I892
sS'melted'
p681
I2182
sS'suppose'
p682
I2183
sS'dashboard'
p683
I1279
sS'coffin'
p684
I3610
sS'stopping'
p685
I1280
sS'cracked'
p686
I2184
sS'voice'
p687
I158
sS'study'
p688
I2185
sS'cab'
p689
I2186
sS'remembering'
p690
I2187
sS'seven'
p691
I1281
sS'changed'
p692
I2188
sS'existence'
p693
I2189
sS'played'
p694
I747
sS'is'
p695
I29
sS'"i'
p696
I434
sS'sting'
p697
I1908
sS'shame'
p698
I1282
sS'elicit'
p699
I2191
sS'tissue'
p700
I2192
sS'pavements'
p701
I2193
sS'foolishness'
p702
I2194
sS'tugged'
p703
I2195
sS'in'
p704
I11
sS'violin'
p705
I2196
sS'disappear'
p706
I2197
sS'if'
p707
I55
sS'grown'
p708
I2198
sS'confirmed'
p709
I1940
sS'bottles'
p710
I2200
sS'shimmering'
p711
I1283
sS'things'
p712
I182
sS'make'
p713
I224
sS'wound'
p714
I936
sS'beside'
p715
I1212
sS'300'
p716
I2405
sS'bottled'
p717
I2202
sS'belly'
p718
I1215
sS'babies'
p719
I2204
sS'metronomic'
p720
I2205
sS'plates'
p721
I2206
sS'several'
p722
I326
sS'grows'
p723
I1992
sS'wheel'
p724
I748
sS'meets'
p725
I1995
sS'peaks'
p726
I2208
sS'screw'
p727
I3767
sS'misery'
p728
I2210
sS'hang'
p729
I938
sS'rain'
p730
I1285
sS'hand'
p731
I194
sS'fridays'
p732
I2211
sS'plonked'
p733
I2212
sS'jealous'
p734
I1682
sS'tuna'
p735
I2214
sS'opportunity'
p736
I1286
sS'thoughts'
p737
I1287
sS'kid'
p738
I750
sS'butter'
p739
I751
sS'weakly'
p740
I1288
sS'kept'
p741
I752
sS'paralysed'
p742
I1289
sS'changes'
p743
I1886
sS'possessed'
p744
I2217
sS'failing'
p745
I2218
sS'echoed'
p746
I2219
sS'ragged'
p747
I2221
sS'contact'
p748
I1291
sS'mother'
p749
I614
sS'echoes'
p750
I2222
sS'the'
p751
I1
sS'left'
p752
I140
sS'indigo'
p753
I1292
sS'unclenched'
p754
I2224
sS'just'
p755
I70
sS'presume'
p756
I3974
sS'aside'
p757
I2624
sS'thanks'
p758
I534
sS'human'
p759
I535
sS'depart'
p760
I2226
sS'yes'
p761
I939
sS'"could'
p762
I2227
sS'yet'
p763
I298
sS'previous'
p764
I2228
sS'drape'
p765
I3743
sS'thankfully'
p766
I2995
sS'infinitely'
p767
I2148
sS'ease'
p768
I2230
sS'had'
p769
I15
sS'shout'
p770
I1293
sS'spread'
p771
I1294
sS'teenager'
p772
I2178
sS'innocent'
p773
I1295
sS'save'
p774
I753
sS'humanity'
p775
I1296
sS'gave'
p776
I940
sS'shoulder'
p777
I616
sS'usable'
p778
I1755
sS'casually'
p779
I1297
sS'mounds'
p780
I2233
sS'intercom'
p781
I2234
sS'flatulence'
p782
I2235
sS'possibly'
p783
I2237
sS'boxes'
p784
I2238
sS'neatly'
p785
I2239
sS'birth'
p786
I2240
sS'ratcheting'
p787
I2241
sS'judge'
p788
I941
sS'burns'
p789
I2242
sS'dreams'
p790
I942
sS'apart'
p791
I943
sS'desire'
p792
I754
sS'county'
p793
I726
sS'beckons'
p794
I3285
sS'scan'
p795
I3032
sS'rustle'
p796
I1299
sS'deafened'
p797
I2243
sS'patience'
p798
I1891
sS'cooler'
p799
I422
sS'kimballs'
p800
I1301
sS'gifted'
p801
I1302
sS'51'
p802
I2244
sS'viscera'
p803
I2245
sS'lapsed'
p804
I2246
sS'pavement'
p805
I1303
sS'steps'
p806
I944
sS'night'
p807
I299
sS'blades'
p808
I1730
sS'cooled'
p809
I2249
sS'jean'
p810
I2250
sS'right'
p811
I159
sS'old'
p812
I225
sS'creek'
p813
I755
sS'crowd'
p814
I2251
sS'people'
p815
I141
sS'crown'
p816
I1304
sS'somehow'
p817
I759
sS'dead'
p818
I348
sS'50'
p819
I2252
sS'crows'
p820
I2253
sS'unless'
p821
I3779
sS'"trip'
p822
I2254
sS'parcel'
p823
I2255
sS'forgotten'
p824
I1578
sS'shapes'
p825
I945
sS'deaf'
p826
I1563
sS'humor'
p827
I2257
sS'ruffled'
p828
I1305
sS'for'
p829
I19
sS'bottom'
p830
I2258
sS'carts'
p831
I2259
sS'normal'
p832
I2260
sS'snickered'
p833
I2261
sS'ice'
p834
I946
sS'plucked'
p835
I2263
sS'everything'
p836
I239
sS'icy'
p837
I2264
sS'asking'
p838
I1307
sS'periphery'
p839
I2265
sS'denied'
p840
I2266
sS'confusion'
p841
I2267
sS'beating'
p842
I1341
sS'christmas'
p843
I2269
sS'cord'
p844
I947
sS'core'
p845
I1308
sS'knew'
p846
I129
sS'extraordinaire'
p847
I2271
sS'corn'
p848
I381
sS'pose'
p849
I2272
sS'disappeared'
p850
I617
sS'wanly'
p851
I3321
sS'discount'
p852
I2273
sS'newcomer'
p853
I1696
sS'graduated'
p854
I1309
sS'post'
p855
I1310
sS'super'
p856
I2275
sS'tyres'
p857
I1311
sS'yelling'
p858
I1362
sS'impenetrable'
p859
I2276
sS'attacks'
p860
I1312
sS'disorder'
p861
I3409
sS'ribs'
p862
I973
sS'months'
p863
I948
sS'anomalous'
p864
I2278
sS'choke'
p865
I2279
sS'o'
p866
I536
sS'costs'
p867
I2280
sS'dinner'
p868
I537
sS'plus'
p869
I1313
sS'afternoon'
p870
I1314
sS'steadily'
p871
I2281
sS'permission'
p872
I2282
sS'slightly'
p873
I382
sS'clamber'
p874
I3781
sS'hotly'
p875
I2286
sS'raised'
p876
I949
sS'digestion'
p877
I2287
sS'statements'
p878
I2288
sS'shopkeepers'
p879
I2289
sS'presence'
p880
I1315
sS'son'
p881
I78
sS'down'
p882
I95
sS'thankful'
p883
I2290
sS'thinned'
p884
I2291
sS'formidable'
p885
I2292
sS'wrap'
p886
I1316
sS'frightened'
p887
I2293
sS'strangely'
p888
I757
sS'east'
p889
I1317
sS'knowingly'
p890
I2294
sS'fabric'
p891
I2295
sS'weathered'
p892
I2296
sS'support'
p893
I1794
sS'suffice'
p894
I2297
sS'available'
p895
I2299
sS'sunlight'
p896
I1318
sS'fight'
p897
I1319
sS'virgin'
p898
I951
sS'grasping'
p899
I850
sS'way'
p900
I84
sS'jane'
p901
I2301
sS'music'
p902
I1899
sS'was'
p903
I12
sS'cloth'
p904
I2643
sS'happy'
p905
I1320
sS'fork'
p906
I2302
sS'sagging'
p907
I758
sS'head'
p908
I89
sS'form'
p909
I1414
sS'forming'
p910
I1321
sS'becoming'
p911
I952
sS'napkins'
p912
I3606
sS'forever'
p913
I1419
sS'ford'
p914
I3029
sS'failure'
p915
I2304
sS'heat'
p916
I1323
sS'needles'
p917
I2305
sS'hear'
p918
I279
sS'removed'
p919
I2306
sS'nodded'
p920
I423
sS'reluctantly'
p921
I2759
sS'220'
p922
I2307
sS'traces'
p923
I1973
sS'"well'
p924
I618
sS'flecks'
p925
I2309
sS'traits'
p926
I2131
sS'muster'
p927
I1324
sS'prevents'
p928
I2310
sS'inside'
p929
I226
sS'attached'
p930
I2312
sS'until'
p931
I248
sS'complications'
p932
I2313
sS'anew'
p933
I1325
sS'smashed'
p934
I2314
sS'cosmos'
p935
I2315
sS'daddy'
p936
I2316
sS'boomed'
p937
I1198
sS'promises'
p938
I2317
sS'napkin'
p939
I3674
sS'ornaments'
p940
I3418
sS'compartment'
p941
I1945
sS'stain'
p942
I2659
sS'shined'
p943
I1326
sS'suspicions'
p944
I2216
sS'crumble'
p945
I785
sS'scrawl'
p946
I2321
sS'sometime'
p947
I2322
sS'exist'
p948
I2323
sS'promised'
p949
I955
sS'fatherhood'
p950
I2324
sS'hypnosis'
p951
I2325
sS'trip'
p952
I619
sS'shit'
p953
I470
sS'physical'
p954
I956
sS'pipe'
p955
I2327
sS'marking'
p956
I2328
sS'holy'
p957
I1904
sS'dotted'
p958
I2329
sS'floor'
p959
I791
sS'whereas'
p960
I2330
sS'when'
p961
I46
sS'handed'
p962
I957
sS'reality'
p963
I1327
sS'til'
p964
I2332
sS'hoarseness'
p965
I2333
sS'nestling'
p966
I2334
sS'interested'
p967
I1771
sS'creep'
p968
I2336
sS'holding'
p969
I1328
sS'papers'
p970
I958
sS'jenkins'
p971
I2337
sS'vanished'
p972
I349
sS'smell'
p973
I328
sS'roll'
p974
I2338
sS'realize'
p975
I1777
sS'dapples'
p976
I2339
sS'grasps'
p977
I2340
sS"'s"
p978
I72
sS'palms'
p979
I2341
sS'helps'
p980
I3527
sS'surprise'
p981
I1329
sS'felt'
p982
I146
sS'describe'
p983
I2892
sS'polite'
p984
I2343
sS'outback'
p985
I2344
sS'fell'
p986
I425
sS'hollered'
p987
I2345
sS'dappled'
p988
I2346
sS'rolling'
p989
I2347
sS'hurt'
p990
I897
sS'weekend'
p991
I2348
sS'died'
p992
I384
sS'fastened'
p993
I2350
sS'faster'
p994
I761
sS'bullet'
p995
I2351
sS'phone'
p996
I622
sS'shallowly'
p997
I2352
sS'together'
p998
I538
sS'"surprised'
p999
I1330
sS'jacket'
p1000
I302
sS'lured'
p1001
I3965
sS'guilty'
p1002
I2354
sS'reception'
p1003
I2355
sS'time'
p1004
I68
sS'push'
p1005
I959
sS'songs'
p1006
I2356
sS'uninterested'
p1007
I2357
sS'managed'
p1008
I762
sS'whoever'
p1009
I2359
sS'skip'
p1010
I2360
sS'relieve'
p1011
I2361
sS'rod'
p1012
I1331
sS'focus'
p1013
I1332
sS'tendrils'
p1014
I2362
sS'mile'
p1015
I2363
sS'skin'
p1016
I210
sS'battle'
p1017
I2364
sS'chair'
p1018
I426
sS'rot'
p1019
I1334
sS'ward'
p1020
I1911
sS'row'
p1021
I2365
sS'certainly'
p1022
I1337
sS'anticipation'
p1023
I2366
sS'ves'
p1024
I2367
sS'despera'
p1025
I1338
sS'flash'
p1026
I1339
sS'father'
p1027
I211
sS'passage'
p1028
I960
sS'answered'
p1029
I540
sS'finally'
p1030
I303
sS'supplies'
p1031
I2152
sS'skirting'
p1032
I2369
sS'suffered'
p1033
I2370
sS'retreat'
p1034
I2371
sS'me'
p1035
I18
sS'protective'
p1036
I2372
sS'string'
p1037
I2373
sS'assholes'
p1038
I3800
sS'pondered'
p1039
I2375
sS'pected'
p1040
I2376
sS'choice'
p1041
I2377
sS'bustle'
p1042
I2378
sS'join'
p1043
I1874
sS'trouble'
p1044
I2380
sS'fifty'
p1045
I2651
sS'minute'
p1046
I1340
sS'cool'
p1047
I1063
sS'drag'
p1048
I2840
sS'dim'
p1049
I2382
sS'perceived'
p1050
I2383
sS'evaded'
p1051
I2702
sS'clouds'
p1052
I962
sS'impressive'
p1053
I2384
sS'hardcover'
p1054
I3802
sS'did'
p1055
I77
sS'die'
p1056
I1342
sS'dif'
p1057
I2386
sS'fragile'
p1058
I1343
sS'gun'
p1059
I2387
sS'leave'
p1060
I427
sS'p'
p1061
I2388
sS'grimace'
p1062
I2389
sS'gut'
p1063
I623
sS'quick'
p1064
I963
sS'movie'
p1065
I3271
sS'guy'
p1066
I240
sS'inclination'
p1067
I2390
sS'round'
p1068
I471
sS'unaware'
p1069
I2391
sS'dis'
p1070
I1344
sS'upper'
p1071
I2392
sS'blade'
p1072
I1109
sS'occurrence'
p1073
I2394
sS'porn'
p1074
I2395
sS'sigh'
p1075
I2379
sS'bead'
p1076
I3829
sS'deflating'
p1077
I2397
sS'sign'
p1078
I250
sS'slowed'
p1079
I1345
sS'shakes'
p1080
I2270
sS'dried'
p1081
I624
sS'comforting'
p1082
I2398
sS'run'
p1083
I573
sS'helpless'
p1084
I764
sS'bake'
p1085
I2399
sS'curse'
p1086
I2400
sS'appear'
p1087
I765
sS'mister'
p1088
I1253
sS'rationalized'
p1089
I2402
sS'uniform'
p1090
I2403
sS'current'
p1091
I2404
sS'rub'
p1092
I1612
sS'hungry'
p1093
I2645
sS'lazily'
p1094
I2406
sS'pulsating'
p1095
I2407
sS'shared'
p1096
I1347
sS'falling'
p1097
I2409
sS'ground'
p1098
I282
sS'filled'
p1099
I472
sS'growls'
p1100
I2411
sS'"anybody'
p1101
I2413
sS'leaped'
p1102
I1919
sS'handyman'
p1103
I2414
sS'envy'
p1104
I3808
sS'understanding'
p1105
I2415
sS'water'
p1106
I304
sS'propounded'
p1107
I3026
sS'baseball'
p1108
I1349
sS'yards'
p1109
I2417
sS'address'
p1110
I2418
sS'alone'
p1111
I1350
sS'along'
p1112
I626
sS'roaring'
p1113
I2419
sS'teacher'
p1114
I1351
sS'change'
p1115
I627
sS'wait'
p1116
I385
sS'box'
p1117
I473
sS'boy'
p1118
I386
sS'thirty'
p1119
I2420
sS'battling'
p1120
I2421
sS'dusty'
p1121
I1588
sS'shift'
p1122
I1353
sS'studied'
p1123
I2423
sS'grinned'
p1124
I966
sS'vibrating'
p1125
I2424
sS'husband'
p1126
I2679
sS'crumbled'
p1127
I2425
sS'diagnosed'
p1128
I2426
sS'prude'
p1129
I2427
sS'usually'
p1130
I1354
sS'shifting'
p1131
I2274
sS'weird'
p1132
I541
sS'pillow'
p1133
I967
sS'teenage'
p1134
I628
sS'love'
p1135
I968
sS'raise'
p1136
I4013
sS'hiking'
p1137
I1355
sS'extra'
p1138
I2429
sS'merely'
p1139
I2430
sS'cacophony'
p1140
I2431
sS'prefer'
p1141
I2432
sS'marked'
p1142
I474
sS'bloody'
p1143
I2433
sS'losing'
p1144
I2434
sS'lamppost'
p1145
I2435
sS'thrum'
p1146
I2436
sS'fake'
p1147
I1608
sS'traversing'
p1148
I2438
sS'swallowed'
p1149
I1356
sS'scaly'
p1150
I2439
sS'sympathetic'
p1151
I2284
sS'yep'
p1152
I2441
sS'working'
p1153
I969
sS'prove'
p1154
I2442
sS'angry'
p1155
I766
sS'quivering'
p1156
I2443
sS'visit'
p1157
I2444
sS'only'
p1158
I109
sS'tightly'
p1159
I970
sS'sports'
p1160
I1619
sS'insides'
p1161
I2445
sS'live'
p1162
I767
sS'wonderfully'
p1163
I2446
sS'wondering'
p1164
I2448
sS'memory'
p1165
I1358
sS'australian'
p1166
I2449
sS'loafing'
p1167
I2450
sS'today'
p1168
I542
sS'scratched'
p1169
I2451
sS'dismay'
p1170
I2452
sS'entrance'
p1171
I2453
sS'teased'
p1172
I1360
sS'cently'
p1173
I2454
sS'apparent'
p1174
I2455
sS'cashier'
p1175
I2456
sS'clue'
p1176
I2458
sS'everywhere'
p1177
I1493
sS'flapping'
p1178
I1361
sS'hesitated'
p1179
I2461
sS'scratches'
p1180
I3516
sS'slinks'
p1181
I2463
sS'cases'
p1182
I3520
sS'effort'
p1183
I2465
sS'easiest'
p1184
I2466
sS'diner'
p1185
I300
sS'graphic'
p1186
I2467
sS'sheds'
p1187
I1364
sS'seeped'
p1188
I2468
sS'collision'
p1189
I2469
sS'car'
p1190
I62
sS'pretend'
p1191
I1365
sS'soul'
p1192
I1366
sS'linger'
p1193
I4015
sS'wallet'
p1194
I2471
sS'sour'
p1195
I2495
sS'can'
p1196
I73
sS'following'
p1197
I515
sS'making'
p1198
I1367
sS'laughter'
p1199
I691
sS'dollars'
p1200
I756
sS'deceased'
p1201
I2475
sS'imitation'
p1202
I3039
sS'heart'
p1203
I201
sS'crazy'
p1204
I974
sS'grouchy'
p1205
I2478
sS'fracturing'
p1206
I2479
sS'figure'
p1207
I1191
sS'distracted'
p1208
I3721
sS'grinning'
p1209
I3518
sS'confused'
p1210
I1397
sS'paused'
p1211
I543
sS'heard'
p1212
I135
sS'stroke'
p1213
I629
sS'gnaws'
p1214
I2483
sS'chin'
p1215
I1368
sS'dropped'
p1216
I475
sS'allowed'
p1217
I3616
sS'topple'
p1218
I3822
sS'redness'
p1219
I630
sS'pink'
p1220
I2484
sS'scar'
p1221
I1520
sS'winter'
p1222
I1371
sS'tilt'
p1223
I1336
sS'discussion'
p1224
I1373
sS'spreads'
p1225
I2485
sS'ping'
p1226
I1698
sS'pine'
p1227
I2487
sS'write'
p1228
I861
sS'flank'
p1229
I2489
sS'pure'
p1230
I2490
sS'significant'
p1231
I3212
sS'gaping'
p1232
I2491
sS'unbelievable'
p1233
I2492
sS'clattered'
p1234
I1846
sS'maw'
p1235
I976
sS'may'
p1236
I768
sS'spot'
p1237
I631
sS'pathetic'
p1238
I2496
sS'crashed'
p1239
I2497
sS'produce'
p1240
I1716
sS'mad'
p1241
I2499
sS'paroxysm'
p1242
I3447
sS'such'
p1243
I212
sS'suck'
p1244
I1374
sS'destructive'
p1245
I2501
sS'guys'
p1246
I544
sS'grow'
p1247
I1375
sS'man'
p1248
I85
sS'vomited'
p1249
I2502
sS'stress'
p1250
I977
sS'branches'
p1251
I545
sS'remember'
p1252
I485
sS'liquid'
p1253
I978
sS'whenever'
p1254
I2504
sS'maybe'
p1255
I305
sS'groaned'
p1256
I2505
sS'tale'
p1257
I2506
sS'darkened'
p1258
I3771
sS'so'
p1259
I49
sS'deposit'
p1260
I1377
sS'supernatural'
p1261
I3858
sS'swollen'
p1262
I979
sS'downsized'
p1263
I2507
sS'tall'
p1264
I980
sS'pulled'
p1265
I306
sS'talk'
p1266
I1733
sS'unconsciously'
p1267
I2509
sS'imagining'
p1268
I981
sS'cute'
p1269
I1378
sS'hoped'
p1270
I3466
sS'breaking'
p1271
I2510
sS'shoes'
p1272
I982
sS'nerve'
p1273
I2511
sS'organic'
p1274
I3715
sS'indeed'
p1275
I2512
sS'pointed'
p1276
I632
sS'logged'
p1277
I3964
sS'denial'
p1278
I3929
sS'years'
p1279
I387
sS'ended'
p1280
I802
sS'tablets'
p1281
I2513
sS'motions'
p1282
I2514
sS'pitch'
p1283
I1379
sS'cold'
p1284
I152
sS'still'
p1285
I102
sS'birds'
p1286
I983
sS'cof'
p1287
I2153
sS'limbs'
p1288
I2515
sS'police'
p1289
I1380
sS'thumb'
p1290
I984
sS'scrolling'
p1291
I3831
sS'jim'
p1292
I370
sS'sixties'
p1293
I1933
sS'window'
p1294
I476
sS'hoots'
p1295
I4047
sS'farmer'
p1296
I770
sS'mail'
p1297
I2518
sS'main'
p1298
I1383
sS'happened'
p1299
I633
sS'lonely'
p1300
I2519
sS'craned'
p1301
I2248
sS'tucked'
p1302
I2521
sS'3'
p1303
I2522
sS'nod'
p1304
I985
sS'conversations'
p1305
I2523
sS'killer'
p1306
I2524
sS'bleestories'
p1307
I2525
sS'juilliard'
p1308
I3718
sS'sooner'
p1309
I2526
sS'underneath'
p1310
I1772
sS'lunch'
p1311
I1384
sS'touching'
p1312
I2528
sS'course'
p1313
I429
sS'drilling'
p1314
I2530
sS'half'
p1315
I351
sS'not'
p1316
I50
sS'now'
p1317
I74
sS'killed'
p1318
I477
sS'nor'
p1319
I1779
sS'accommodate'
p1320
I2533
sS'term'
p1321
I2534
sS'shouted'
p1322
I771
sS'name'
p1323
I280
sS'streaks'
p1324
I2535
sS'chuckled'
p1325
I2536
sS'corners'
p1326
I1385
sS'didn'
p1327
I136
sS'debating'
p1328
I2538
sS'peered'
p1329
I2539
sS'honked'
p1330
I2540
sS'nodding'
p1331
I1387
sS'realise'
p1332
I430
sS'jersey'
p1333
I3885
sS'veins'
p1334
I2541
sS'eighties'
p1335
I987
sS'seldom'
p1336
I2673
sS'capped'
p1337
I2542
sS'en'
p1338
I2543
sS'fired'
p1339
I1388
sS'blinked'
p1340
I2544
sS'crushing'
p1341
I1389
sS'yeah'
p1342
I634
sS'hurried'
p1343
I1390
sS'goose'
p1344
I2546
sS'catching'
p1345
I1802
sS'ex'
p1346
I988
sS'year'
p1347
I989
sS'girl'
p1348
I183
sS'dripped'
p1349
I1742
sS'relive'
p1350
I1561
sS'giddy'
p1351
I2549
sS'living'
p1352
I990
sS'putrid'
p1353
I1392
sS'opened'
p1354
I431
sS'space'
p1355
I2550
sS'haste'
p1356
I2065
sS'factory'
p1357
I2551
sS'thirst'
p1358
I2552
sS'hastily'
p1359
I2553
sS'looking'
p1360
I160
sS'stupid'
p1361
I549
sS'trauma'
p1362
I1394
sS'rational'
p1363
I2554
sS'internet'
p1364
I773
sS'"besides'
p1365
I2555
sS'rolex'
p1366
I2556
sS'assurance'
p1367
I2557
sS'gush'
p1368
I2558
sS'inevitably'
p1369
I1395
sS'earlier'
p1370
I1396
sS'monster'
p1371
I890
sS'state'
p1372
I1142
sS'cars'
p1373
I389
sS'million'
p1374
I2559
sS'seventh'
p1375
I2408
sS'quite'
p1376
I992
sS'bumps'
p1377
I1189
sS'inviting'
p1378
I3980
sS'besides'
p1379
I2563
sS'ajar'
p1380
I2564
sS'cough'
p1381
I1398
sS'remainder'
p1382
I2565
sS'inevitable'
p1383
I2566
sS'card'
p1384
I2567
sS'care'
p1385
I635
sS'underwear'
p1386
I2568
sS'"hello'
p1387
I2569
sS'couldn'
p1388
I636
sS'"hell'
p1389
I3834
sS'"how'
p1390
I2570
sS'intelligence'
p1391
I3734
sS'undigested'
p1392
I2572
sS'modest'
p1393
I2573
sS'turn'
p1394
I203
sS'person'
p1395
I3362
sS'place'
p1396
I213
sS'vision'
p1397
I950
sS'swing'
p1398
I1882
sS'domed'
p1399
I2576
sS'view'
p1400
I1745
sS'childhood'
p1401
I1205
sS'waited'
p1402
I546
sS'first'
p1403
I123
sS'blind'
p1404
I993
sS'cheese'
p1405
I2577
sS'initial'
p1406
I2298
sS'impossibly'
p1407
I1400
sS'spoken'
p1408
I2578
sS'writhe'
p1409
I2358
sS'gargling'
p1410
I2580
sS'one'
p1411
I59
sS'long'
p1412
I137
sS'directly'
p1413
I1401
sS'fi'
p1414
I3055
sS'sounds'
p1415
I329
sS'drove'
p1416
I637
sS'open'
p1417
I153
sS'tomorrow'
p1418
I1403
sS'ripping'
p1419
I1932
sS'size'
p1420
I638
sS'tingling'
p1421
I1404
sS'city'
p1422
I352
sS'given'
p1423
I775
sS'checked'
p1424
I995
sS'silent'
p1425
I996
sS'stuck'
p1426
I1406
sS'caught'
p1427
I307
sS'slept'
p1428
I997
sS'plastic'
p1429
I1407
sS'anyone'
p1430
I776
sS'2'
p1431
I998
sS'stuffed'
p1432
I999
sS'white'
p1433
I227
sS'puddle'
p1434
I3840
sS'friend'
p1435
I390
sS'"let'
p1436
I2054
sS'eyes'
p1437
I64
sS'hug'
p1438
I2585
sS'prissy'
p1439
I2586
sS'femur'
p1440
I2587
sS'that'
p1441
I13
sS'streaked'
p1442
I2589
sS'huh'
p1443
I2591
sS'accurately'
p1444
I2071
sS'"there'
p1445
I2593
sS'expanse'
p1446
I2594
sS'buts'
p1447
I2595
sS'cops'
p1448
I639
sS'rhythm'
p1449
I2368
sS'eyed'
p1450
I1000
sS'caging'
p1451
I2596
sS'junkyard'
p1452
I2597
sS'copy'
p1453
I1001
sS'cleanse'
p1454
I1408
sS'than'
p1455
I154
sS'merged'
p1456
I3234
sS'11'
p1457
I2598
sS'wide'
p1458
I330
sS'television'
p1459
I2059
sS'cracks'
p1460
I1409
sS'15'
p1461
I1002
sS'14'
p1462
I1410
sS'scraping'
p1463
I1411
sS'crowded'
p1464
I3061
sS'transferred'
p1465
I2601
sS'coats'
p1466
I2602
sS'future'
p1467
I2129
sS'knives'
p1468
I2604
sS'apples'
p1469
I134
sS'were'
p1470
I54
sS'bauer'
p1471
I2140
sS'asleep'
p1472
I1412
sS'trophy'
p1473
I2608
sS'browser'
p1474
I2609
sS'and'
p1475
I4
sS'dutifully'
p1476
I2610
sS'gathering'
p1477
I2611
sS'illness'
p1478
I2612
sS'spotter'
p1479
I2613
sS'remained'
p1480
I777
sS'sac'
p1481
I1413
sS'bolts'
p1482
I3100
sS'turned'
p1483
I172
sS'argument'
p1484
I1228
sS'slap'
p1485
I2174
sS'voices'
p1486
I1277
sS'ant'
p1487
I2617
sS'say'
p1488
I281
sS'buried'
p1489
I2618
sS'horsepower'
p1490
I2619
sS'breakfast'
p1491
I640
sS'sap'
p1492
I2620
sS'saw'
p1493
I90
sS'any'
p1494
I173
sS'ferring'
p1495
I2621
sS'sat'
p1496
I308
sS'offering'
p1497
I2303
sS'downwards'
p1498
I1415
sS"passengers'"
p1499
I2225
sS'shocked'
p1500
I1416
sS'note'
p1501
I1417
sS'emphasis'
p1502
I2625
sS'take'
p1503
I174
sS'"yeah'
p1504
I1003
sS'online'
p1505
I1418
sS'wanting'
p1506
I971
sS'wonder'
p1507
I2627
sS'spasming'
p1508
I2628
sS'specks'
p1509
I1952
sS'begin'
p1510
I327
sS'sure'
p1511
I147
sS'pain'
p1512
I241
sS'trace'
p1513
I2630
sS'opposite'
p1514
I778
sS'syllable'
p1515
I2631
sS'slump'
p1516
I3465
sS'price'
p1517
I2632
sS'enter'
p1518
I1206
sS'paid'
p1519
I641
sS'"jeez'
p1520
I3859
sS'boiling'
p1521
I2634
sS'keen'
p1522
I3960
sS'sheets'
p1523
I2635
sS'jell'
p1524
I2000
sS'knee'
p1525
I2637
sS'cleared'
p1526
I1004
sS'littering'
p1527
I2590
sS'ering'
p1528
I2639
sS'lawn'
p1529
I1322
sS'relaxes'
p1530
I2641
sS'especially'
p1531
I1420
sS'fills'
p1532
I2311
sS'average'
p1533
I1421
sS'later'
p1534
I478
sS'steady'
p1535
I2644
sS'drive'
p1536
I954
sS'tooth'
p1537
I2646
sS'jitters'
p1538
I2647
sS'"another'
p1539
I2648
sS'dolor'
p1540
I2649
sS'shop'
p1541
I391
sS'walking'
p1542
I479
sS'shot'
p1543
I642
sS'show'
p1544
I547
sS'friction'
p1545
I2650
sS'"bob'
p1546
I2381
sS'peaches'
p1547
I1005
sS'bright'
p1548
I548
sS'therapist'
p1549
I2652
sS'shoe'
p1550
I1422
sS'corner'
p1551
I433
sS'sheltered'
p1552
I2203
sS'imagined'
p1553
I643
sS'curled'
p1554
I1209
sS'slow'
p1555
I1348
sS'favor'
p1556
I3857
sS'true'
p1557
I779
sS'stained'
p1558
I2655
sS'enough'
p1559
I184
sS'either'
p1560
I393
sS'"if'
p1561
I3073
sS'tears'
p1562
I251
sS'going'
p1563
I161
sS'black'
p1564
I480
sS'escent'
p1565
I2657
sS'enthusiasm'
p1566
I3189
sS'robe'
p1567
I1405
sS'clawing'
p1568
I2661
sS'arlon'
p1569
I1424
sS'hooting'
p1570
I1006
sS'lieved'
p1571
I2662
sS'get'
p1572
I100
sS'wetting'
p1573
I2664
sS'freezing'
p1574
I1425
sS'expectation'
p1575
I2665
sS'truly'
p1576
I1393
sS'responding'
p1577
I2667
sS'nearly'
p1578
I780
sS'pursed'
p1579
I3860
sS'prided'
p1580
I2668
sS'revulsion'
p1581
I2669
sS'reveal'
p1582
I2670
sS'skewered'
p1583
I2671
sS'aluminum'
p1584
I2672
sS'leather'
p1585
I1427
sS'irrational'
p1586
I2493
sS'fainted'
p1587
I2675
sS'morning'
p1588
I353
sS'naked'
p1589
I1007
sS'miles'
p1590
I991
sS'losers'
p1591
I2676
sS'worries'
p1592
I1428
sS'tent'
p1593
I1429
sS'where'
p1594
I117
sS'silently'
p1595
I1159
sS'stumbled'
p1596
I2899
sS'screws'
p1597
I3334
sS'morose'
p1598
I2680
sS'burst'
p1599
I2681
sS'violated'
p1600
I2682
sS'ity'
p1601
I2683
sS'innards'
p1602
I2684
sS'seat'
p1603
I196
sS'college'
p1604
I644
sS'parking'
p1605
I550
sS'sport'
p1606
I2622
sS'concentric'
p1607
I2256
sS'concern'
p1608
I1430
sS'surfaces'
p1609
I2687
sS'"damn'
p1610
I2688
sS'camping'
p1611
I551
sS'ways'
p1612
I645
sS'outside'
p1613
I392
sS"'re"
p1614
I1431
sS'rephrase'
p1615
I2690
sS'between'
p1616
I309
sS'it'
p1617
I8
sS'teens'
p1618
I2692
sS'reading'
p1619
I1008
sS'across'
p1620
I214
sS'oversized'
p1621
I2693
sS'whispered'
p1622
I2694
sS'ima'
p1623
I1962
sS'notice'
p1624
I1433
sS'playground'
p1625
I3701
sS'laced'
p1626
I3081
sS'pahchay'
p1627
I899
sS'blame'
p1628
I2696
sS'spare'
p1629
I2697
sS'tub'
p1630
I1637
sS'killing'
p1631
I1434
sS'come'
p1632
I252
sS'abduction'
p1633
I2700
sS'reaction'
p1634
I2701
sS'many'
p1635
I253
sS'region'
p1636
I2703
sS'quiet'
p1637
I646
sS'flipped'
p1638
I1009
sS'personal'
p1639
I1436
sS's'
p1640
I40
sS'loudly'
p1641
I781
sS'aura'
p1642
I1010
sS'inward'
p1643
I3083
sS'awkward'
p1644
I2532
sS'wheels'
p1645
I2705
sS'comes'
p1646
I1011
sS'among'
p1647
I1012
sS'"get'
p1648
I2706
sS'madness'
p1649
I2707
sS'passenger'
p1650
I469
sS'sixth'
p1651
I3567
sS'partment'
p1652
I3870
sS'jeans'
p1653
I481
sS'period'
p1654
I1437
sS'terminally'
p1655
I2599
sS'twin'
p1656
I1013
sS'stretched'
p1657
I782
sS'babbling'
p1658
I2711
sS'ately'
p1659
I2712
sS'constant'
p1660
I3480
sS'twig'
p1661
I2713
sS'precious'
p1662
I3872
sS'boat'
p1663
I552
sS'"graveyard'
p1664
I2715
sS'fitful'
p1665
I2716
sS'destroyed'
p1666
I2717
sS'comb'
p1667
I2699
sS'reflec'
p1668
I2718
sS'stretch'
p1669
I783
sS'west'
p1670
I1438
sS'rebuild'
p1671
I2719
sS'vacation'
p1672
I2720
sS'mark'
p1673
I482
sS'breath'
p1674
I354
sS'combined'
p1675
I2721
sS'stripped'
p1676
I1439
sS'abating'
p1677
I2722
sS'excreting'
p1678
I2723
sS'exhaustion'
p1679
I2724
sS'"pt'
p1680
I1968
sS'engine'
p1681
I553
sS'direction'
p1682
I1441
sS'educated'
p1683
I2725
sS'shopping'
p1684
I784
sS'graveyard'
p1685
I2726
sS'juts'
p1686
I2727
sS'offered'
p1687
I1442
sS'formed'
p1688
I2728
sS'wounds'
p1689
I2698
sS'gripped'
p1690
I1014
sS'dramatic'
p1691
I2729
sS'wake'
p1692
I1015
sS'covers'
p1693
I2320
sS'stems'
p1694
I2731
sS'definable'
p1695
I2732
sS'hidden'
p1696
I1213
sS'those'
p1697
I162
sS'sound'
p1698
I175
sS'inrush'
p1699
I2733
sS'myself'
p1700
I124
sS'folding'
p1701
I2734
sS'these'
p1702
I437
sS'mount'
p1703
I1443
sS'sobbed'
p1704
I1444
sS'plight'
p1705
I3738
sS'cash'
p1706
I1096
sS"n't"
p1707
I79
sS'cast'
p1708
I1445
sS'forefinger'
p1709
I2737
sS'newspaper'
p1710
I1446
sS'situation'
p1711
I786
sS'shops'
p1712
I649
sS'stupidest'
p1713
I2738
sS'moorings'
p1714
I2739
sS'girth'
p1715
I1447
sS'eventually'
p1716
I1448
sS'soil'
p1717
I1017
sS'inflatable'
p1718
I2740
sS'engaged'
p1719
I1449
sS'coffee'
p1720
I394
sS'snaking'
p1721
I2741
sS'according'
p1722
I1382
sS'middle'
p1723
I650
sS'regularity'
p1724
I2742
sS'good'
p1725
I228
sS'minds'
p1726
I3879
sS'heels'
p1727
I2677
sS'property'
p1728
I2745
sS'ivy'
p1729
I2746
sS'worry'
p1730
I1451
sS'movements'
p1731
I2747
sS'shopkeeper'
p1732
I1058
sS'bags'
p1733
I1452
sS'different'
p1734
I788
sS'psychopath'
p1735
I3485
sS'shuts'
p1736
I2748
sS'considerable'
p1737
I3469
sS'doctor'
p1738
I2749
sS'pay'
p1739
I1454
sS'perpetually'
p1740
I1455
sS'same'
p1741
I176
sS'check'
p1742
I2750
sS'thinning'
p1743
I2751
sS'clammy'
p1744
I1018
sS'figures'
p1745
I3174
sS'stepped'
p1746
I310
sS'frequented'
p1747
I2752
sS'events'
p1748
I789
sS'crotch'
p1749
I2753
sS'week'
p1750
I496
sS'exhaust'
p1751
I1456
sS'oil'
p1752
I2755
sS'booths'
p1753
I1020
sS'arctic'
p1754
I2757
sS'driver'
p1755
I254
sS'vista'
p1756
I2758
sS'"maybe'
p1757
I2704
sS'running'
p1758
I331
sS'fruit'
p1759
I1070
sS'delicate'
p1760
I2760
sS'intended'
p1761
I3050
sS'climbing'
p1762
I1541
sS'speechless'
p1763
I3091
sS'swallow'
p1764
I3545
sS'complained'
p1765
I2763
sS'commemorate'
p1766
I2247
sS'ruffling'
p1767
I2765
sS'dying'
p1768
I2766
sS'puzzled'
p1769
I2767
sS'no'
p1770
I53
sS'roughly'
p1771
I2769
sS'severe'
p1772
I2770
sS'breeze'
p1773
I826
sS'solve'
p1774
I2771
sS'relief'
p1775
I651
sS'bottle'
p1776
I2772
sS'very'
p1777
I342
sS'model'
p1778
I2774
sS'dimension'
p1779
I2775
sS'bodies'
p1780
I1021
sS'parody'
p1781
I2776
sS'taxi'
p1782
I2777
sS'summer'
p1783
I2778
sS'neighborhood'
p1784
I2779
sS'desolate'
p1785
I1458
sS'clogging'
p1786
I1978
sS'being'
p1787
I396
sS'money'
p1788
I483
sS'exaggerating'
p1789
I2780
sS'rest'
p1790
I397
sS'violent'
p1791
I2782
sS'growled'
p1792
I2783
sS'kill'
p1793
I792
sS'ounces'
p1794
I2784
sS'touch'
p1795
I484
sS'culde'
p1796
I2785
sS'speed'
p1797
I1459
sS'multiples'
p1798
I2786
sS'weekly'
p1799
I2787
sS'blow'
p1800
I1022
sS'uttered'
p1801
I2788
sS'death'
p1802
I167
sS'generator'
p1803
I559
sS'thinking'
p1804
I311
sS'rose'
p1805
I1023
sS'seems'
p1806
I554
sS'except'
p1807
I652
sS'improvement'
p1808
I2790
sS'lets'
p1809
I2791
sS'setting'
p1810
I2335
sS'pile'
p1811
I1024
sS'4'
p1812
I1460
sS'hind'
p1813
I2793
sS'plumes'
p1814
I1025
sS'ca'
p1815
I3887
sS'real'
p1816
I837
sS'fucked'
p1817
I3942
sS'around'
p1818
I67
sS'desperately'
p1819
I2795
sS'read'
p1820
I435
sS'stung'
p1821
I2796
sS'dealing'
p1822
I3168
sS'tissues'
p1823
I4055
sS'gonna'
p1824
I2797
sS'confines'
p1825
I2798
sS'early'
p1826
I681
sS'trailing'
p1827
I4061
sS'traffic'
p1828
I1462
sS'mom'
p1829
I255
sS'using'
p1830
I793
sS'swatch'
p1831
I2799
sS'lady'
p1832
I2768
sS'vague'
p1833
I2801
sS'grin'
p1834
I682
sS'furniture'
p1835
I2803
sS'bonding'
p1836
I3498
sS'satisfaction'
p1837
I2710
sS'towel'
p1838
I2805
sS'stranger'
p1839
I1026
sS'pounds'
p1840
I1027
sS'nutrients'
p1841
I2806
sS'swaying'
p1842
I2807
sS'towed'
p1843
I2808
sS'serves'
p1844
I2809
sS"'ve"
p1845
I794
sS'facing'
p1846
I1463
sS'footballs'
p1847
I1464
sS'laughing'
p1848
I842
sS'fully'
p1849
I1028
sS'gaps'
p1850
I2547
sS'upside'
p1851
I1951
sS'nice'
p1852
I574
sS'twelve'
p1853
I2812
sS'explaining'
p1854
I2813
sS'pointlessly'
p1855
I2814
sS'eddie'
p1856
I2816
sS'snatched'
p1857
I857
sS'images'
p1858
I1031
sS'ascent'
p1859
I1032
sS'slice'
p1860
I1467
sS'dimensions'
p1861
I2817
sS'memories'
p1862
I1468
sS'tube'
p1863
I1033
sS'cleanser'
p1864
I1034
sS'defenceless'
p1865
I2820
sS'frantically'
p1866
I1993
sS'stops'
p1867
I2349
sS'throat'
p1868
I312
sS'dealership'
p1869
I2823
sS'belches'
p1870
I2824
sS'dimples'
p1871
I1469
sS'forks'
p1872
I2825
sS'tubs'
p1873
I2826
sS'knife'
p1874
I486
sS'unsuccessfully'
p1875
I2827
sS'muttered'
p1876
I2828
sS'welcome'
p1877
I2829
sS'roast'
p1878
I2830
sS'business'
p1879
I795
sS'seconds'
p1880
I487
sS'unkempt'
p1881
I1595
sS'strained'
p1882
I2832
sS'broken'
p1883
I796
sS'seducing'
p1884
I2833
sS'drums'
p1885
I2834
sS'fished'
p1886
I2574
sS'throw'
p1887
I797
sS'on'
p1888
I20
sS'stone'
p1889
I798
sS'ok'
p1890
I2836
sS'pulsated'
p1891
I3893
sS'origins'
p1892
I2837
sS'oh'
p1893
I555
sS'of'
p1894
I6
sS'cares'
p1895
I2838
sS'favorite'
p1896
I2654
sS'meaning'
p1897
I2804
sS'slender'
p1898
I2841
sS'meal'
p1899
I1470
sS"'d"
p1900
I418
sS'wolf'
p1901
I2842
sS'stand'
p1902
I185
sS'pockets'
p1903
I1472
sS'stank'
p1904
I1473
sS'mean'
p1905
I355
sS'deranged'
p1906
I2843
sS'or'
p1907
I56
sS'road'
p1908
I256
sS'utterly'
p1909
I2845
sS'burning'
p1910
I2846
sS'weighs'
p1911
I2847
sS'trot'
p1912
I2410
sS'image'
p1913
I799
sS'wads'
p1914
I2848
sS'cursed'
p1915
I2849
sS'freaked'
p1916
I2850
sS'rising'
p1917
I1706
sS'homeless'
p1918
I2852
sS'heated'
p1919
I2517
sS'elementary'
p1920
I2854
sS'happening'
p1921
I2855
sS'your'
p1922
I242
sS'cious'
p1923
I2856
sS'technically'
p1924
I2857
sS'stare'
p1925
I800
sS'her'
p1926
I21
sS'area'
p1927
I1035
sS'slurped'
p1928
I2859
sS'gleam'
p1929
I2133
sS'there'
p1930
I44
sS'blurred'
p1931
I2861
sS'hey'
p1932
I2862
sS'sides'
p1933
I3499
sS'dreaming'
p1934
I3689
sS'start'
p1935
I399
sS'drank'
p1936
I1145
sS'oesophagus'
p1937
I2864
sS'low'
p1938
I600
sS'lot'
p1939
I488
sS'jaws'
p1940
I663
sS'bubble'
p1941
I1474
sS'energy'
p1942
I3108
sS'wobbly'
p1943
I2866
sS'mornings'
p1944
I2867
sS'costumers'
p1945
I3896
sS'furthest'
p1946
I2869
sS'gory'
p1947
I2870
sS'peaceful'
p1948
I2640
sS'contort'
p1949
I2872
sS'bookstore'
p1950
I653
sS'recoil'
p1951
I3792
sS'survived'
p1952
I2873
sS'squawked'
p1953
I2874
sS'optical'
p1954
I1821
sS'trying'
p1955
I489
sS'with'
p1956
I22
sS'buying'
p1957
I2876
sS'longer'
p1958
I557
sS'abused'
p1959
I2877
sS'pull'
p1960
I654
sS'hire'
p1961
I1475
sS'arranged'
p1962
I2879
sS'bachelor'
p1963
I3571
sS'chomped'
p1964
I2880
sS'nearest'
p1965
I2881
sS'sadness'
p1966
I2882
sS'dirty'
p1967
I2883
sS'grasp'
p1968
I2884
sS'chapped'
p1969
I2885
sS'grass'
p1970
I332
sS'torso'
p1971
I2886
sS'creeping'
p1972
I2887
sS'rust'
p1973
I1476
sS'gone'
p1974
I197
sS'palate'
p1975
I2888
sS'pleasantville'
p1976
I3958
sS'taste'
p1977
I2890
sS'certain'
p1978
I2891
sS'stealing'
p1979
I2342
sS'am'
p1980
I63
sS'sales'
p1981
I1148
sS'deep'
p1982
I243
sS'an'
p1983
I106
sS'ap'
p1984
I2893
sS'as'
p1985
I16
sS'scanned'
p1986
I1477
sS'ensuing'
p1987
I2894
sS'at'
p1988
I17
sS'girlfriend'
p1989
I1152
sS'watched'
p1990
I558
sS'moves'
p1991
I2896
sS'dawn'
p1992
I2092
sS'protruded'
p1993
I2898
sS'fill'
p1994
I1478
sS'again'
p1995
I94
sS'smiling'
p1996
I2686
sS'beyond'
p1997
I3112
sS'rubbed'
p1998
I2900
sS'credibility'
p1999
I2901
sS'drivers'
p2000
I1479
sS'storage'
p2001
I2902
sS'insurance'
p2002
I3113
sS'rubber'
p2003
I2903
sS'tight'
p2004
I655
sS'clamouring'
p2005
I2904
sS'leap'
p2006
I4002
sS'5'
p2007
I2905
sS'you'
p2008
I27
sS'really'
p2009
I168
sS'thousand'
p2010
I1480
sS'attack'
p2011
I3732
sS'briefly'
p2012
I1038
sS'shelter'
p2013
I1481
sS'teeth'
p2014
I195
sS'drift'
p2015
I2907
sS'includes'
p2016
I2908
sS'waving'
p2017
I2909
sS'dies'
p2018
I2910
sS'important'
p2019
I2911
sS'sheepishly'
p2020
I1835
sS'peak'
p2021
I1039
sS'recognise'
p2022
I1040
sS'detritus'
p2023
I2474
sS'sneeze'
p2024
I2913
sS'pool'
p2025
I2914
sS'building'
p2026
I1482
sS'condensation'
p2027
I1483
sS'calls'
p2028
I1484
sS'wife'
p2029
I1485
sS'sobbing'
p2030
I2915
sS'apathy'
p2031
I2916
sS'curve'
p2032
I1041
sS'having'
p2033
I689
sS'moonlight'
p2034
I2917
sS'excretion'
p2035
I1187
sS'tightened'
p2036
I2919
sS'mass'
p2037
I2920
sS'wherever'
p2038
I1486
sS'smirk'
p2039
I2001
sS'alright'
p2040
I1487
sS'numbing'
p2041
I2921
sS'tanned'
p2042
I2844
sS'original'
p2043
I1488
sS'growling'
p2044
I2923
sS'all'
p2045
I52
sS'throes'
p2046
I2924
sS'forget'
p2047
I1489
sS'washed'
p2048
I1221
sS'crept'
p2049
I2032
sS'dollar'
p2050
I1043
sS'weren'
p2051
I2181
sS'month'
p2052
I1044
sS'turbocharged'
p2053
I1842
sS'ceased'
p2054
I2928
sS'cornfield'
p2055
I1490
sS'fairness'
p2056
I2929
sS'messy'
p2057
I2930
sS'follow'
p2058
I1045
sS'disk'
p2059
I2931
sS'children'
p2060
I1181
sS'causes'
p2061
I2933
sS'carpet'
p2062
I2934
sS'glimpse'
p2063
I1046
sS'batches'
p2064
I1491
sS'"ok'
p2065
I2935
sS'hunting'
p2066
I806
sS'sparkle'
p2067
I2936
sS'ignorant'
p2068
I2460
sS'regulars'
p2069
I2937
sS'tain'
p2070
I2938
sS'to'
p2071
I5
sS'tail'
p2072
I2939
sS'shredding'
p2073
I2940
sS'wants'
p2074
I1494
sS'issued'
p2075
I2941
sS'smile'
p2076
I284
sS'hideous'
p2077
I2942
sS'case'
p2078
I1573
sS'woman'
p2079
I257
sS'appointment'
p2080
I2944
sS'returned'
p2081
I460
sS'sitting'
p2082
I416
sS'far'
p2083
I198
sS'horror'
p2084
I807
sS'swallows'
p2085
I1567
sS'souls'
p2086
I2947
sS'coursing'
p2087
I1948
sS'worst'
p2088
I1495
sS'fall'
p2089
I808
sS'admonition'
p2090
I3842
sS'difference'
p2091
I2949
sS'improve'
p2092
I3899
sS'ranting'
p2093
I2950
sS'higgins'
p2094
I1048
sS'drugged'
p2095
I2756
sS'ambulance'
p2096
I2953
sS'list'
p2097
I356
sS'joined'
p2098
I2954
sS'large'
p2099
I313
sS'jointed'
p2100
I2735
sS'sand'
p2101
I285
sS'swirling'
p2102
I2004
sS'dusky'
p2103
I2956
sS'small'
p2104
I229
sS'tear'
p2105
I2957
sS'sank'
p2106
I1049
sS'flick'
p2107
I2021
sS'charlie'
p2108
I2959
sS'rats'
p2109
I1496
sS'portable'
p2110
I2960
sS'fence'
p2111
I909
sS'tea'
p2112
I1497
sS'streets'
p2113
I2962
sS'fragility'
p2114
I2038
sS'tee'
p2115
I911
sS'nothingness'
p2116
I2736
sS'past'
p2117
I400
sS'orgasm'
p2118
I2965
sS'stamping'
p2119
I2966
sS'perspective'
p2120
I1499
sS'pass'
p2121
I809
sS'further'
p2122
I258
sS'creatures'
p2123
I2967
sS'putting'
p2124
I3538
sS'trick'
p2125
I2968
sS'what'
p2126
I48
sS'stood'
p2127
I186
sS'darkness'
p2128
I438
sS'clock'
p2129
I1500
sS'sun'
p2130
I223
sS'section'
p2131
I1051
sS'stool'
p2132
I1501
sS'brief'
p2133
I2969
sS'crush'
p2134
I2971
sS'version'
p2135
I2972
sS'sup'
p2136
I2973
sS'fixings'
p2137
I2974
sS'learned'
p2138
I2975
sS'luxuries'
p2139
I2976
sS'racing'
p2140
I1502
sS'plush'
p2141
I1503
sS'straining'
p2142
I3725
sS'womb'
p2143
I1125
sS'full'
p2144
I490
sS'escaping'
p2145
I2889
sS'fugue'
p2146
I2978
sS'loose'
p2147
I1505
sS'misread'
p2148
I2979
sS'manicured'
p2149
I2980
sS'hours'
p2150
I230
sS'tracks'
p2151
I2149
sS'trunk'
p2152
I491
sS'strong'
p2153
I811
sS'tragedy'
p2154
I2982
sS'fantasies'
p2155
I2983
sS'search'
p2156
I2984
sS'colored'
p2157
I2985
sS'ahead'
p2158
I657
sS'brooke'
p2159
I2986
sS'stretching'
p2160
I2987
sS'experience'
p2161
I1506
sS'soldier'
p2162
I2989
sS'pitfalls'
p2163
I3138
sS'horrified'
p2164
I2990
sS'pick'
p2165
I1055
sS'sunburned'
p2166
I2992
sS'exited'
p2167
I2220
sS'struggle'
p2168
I2011
sS'via'
p2169
I2994
sS'followed'
p2170
I561
sS'family'
p2171
I615
sS'permeate'
p2172
I3917
sS'suddenly'
p2173
I148
sS'layer'
p2174
I3918
sS'put'
p2175
I401
sS'"biggest'
p2176
I2998
sS'captor'
p2177
I2999
sS'trained'
p2178
I3000
sS'pulls'
p2179
I3001
sS'armed'
p2180
I1508
sS'ringing'
p2181
I3002
sS'literary'
p2182
I3525
sS'eye'
p2183
I492
sS'takes'
p2184
I3005
sS'distinct'
p2185
I3006
sS'wiped'
p2186
I3007
sS'faint'
p2187
I1509
sS'two'
p2188
I103
sS'anger'
p2189
I3008
sS'taken'
p2190
I709
sS'fret'
p2191
I2013
sS'minor'
p2192
I3010
sS'more'
p2193
I125
sS'teen'
p2194
I3011
sS'flat'
p2195
I1511
sS'diamond'
p2196
I3012
sS'door'
p2197
I118
sS'knows'
p2198
I1512
sS'coating'
p2199
I3013
sS'company'
p2200
I1513
sS'dribbled'
p2201
I3144
sS'telephone'
p2202
I3014
sS'flag'
p2203
I3015
sS'moistened'
p2204
I3016
sS'broke'
p2205
I1515
sS'particular'
p2206
I3017
sS'known'
p2207
I812
sS'gold'
p2208
I3522
sS'sleeping'
p2209
I1450
sS'glad'
p2210
I1516
sS'presumed'
p2211
I3019
sS'town'
p2212
I1053
sS'grill'
p2213
I3020
sS'none'
p2214
I3021
sS'gravel'
p2215
I3530
sS'hour'
p2216
I658
sS'created'
p2217
I3022
sS'installing'
p2218
I3023
sS'remain'
p2219
I3024
sS'sudden'
p2220
I1517
sS'nine'
p2221
I1054
sS'learn'
p2222
I3025
sS'knocked'
p2223
I2416
sS'absently'
p2224
I3027
sS'lingered'
p2225
I1519
sS'beautiful'
p2226
I1056
sS'purchases'
p2227
I3028
sS'ritual'
p2228
I3030
sS'pushes'
p2229
I3031
sS'cowl'
p2230
I760
sS'salesmen'
p2231
I3033
sS'joints'
p2232
I3034
sS'share'
p2233
I3035
sS'accept'
p2234
I3036
sS'sunscreen'
p2235
I3037
sS'pushed'
p2236
I439
sS'protects'
p2237
I3038
sS'numbers'
p2238
I2476
sS'sense'
p2239
I659
sS'sharp'
p2240
I975
sS'disliked'
p2241
I1370
sS'firmly'
p2242
I3042
sS'!'
p2243
I110
sS'drained'
p2244
I1057
sS'desperation'
p2245
I1667
sS'rather'
p2246
I440
sS'plans'
p2247
I3044
sS'hugo'
p2248
I333
sS'thumbs'
p2249
I1521
sS'stayed'
p2250
I3045
sS'cleansing'
p2251
I1522
sS'<PAD>'
p2252
I0
sS'lift'
p2253
I4086
sS'extinguished'
p2254
I3046
sS'browns'
p2255
I3047
sS'unearthly'
p2256
I3048
sS'heel'
p2257
I3987
sS'guttural'
p2258
I1523
sS'creature'
p2259
I402
sS'tinfoil'
p2260
I3049
sS'rungs'
p2261
I787
sS'sandwich'
p2262
I1059
sS'tried'
p2263
I388
sS'catalog'
p2264
I3052
sS'tries'
p2265
I2096
sS'absentmindedly'
p2266
I1524
sS'lighting'
p2267
I3053
sS'blood'
p2268
I149
sS'numb'
p2269
I3054
sS'coming'
p2270
I562
sS'gasp'
p2271
I1402
sS'appealed'
p2272
I3056
sS'gine'
p2273
I3536
sS'response'
p2274
I1525
sS'malevolent'
p2275
I3058
sS'a'
p2276
I7
sS'dissolving'
p2277
I3059
sS'short'
p2278
I563
sS'morphing'
p2279
I3060
sS'resemble'
p2280
I2600
sS'loud'
p2281
I719
sS'shady'
p2282
I3062
sS'register'
p2283
I813
sS'crippling'
p2284
I3063
sS'perhaps'
p2285
I341
sS'shore'
p2286
I3064
sS'dread'
p2287
I1060
sS'shade'
p2288
I3066
sS'threatens'
p2289
I3067
sS'pleasure'
p2290
I1526
sS'dream'
p2291
I814
sS'playing'
p2292
I3068
sS'replied'
p2293
I815
sS'hypnotising'
p2294
I3069
sS'infant'
p2295
I3070
sS'mexican'
p2296
I3071
sS'help'
p2297
I314
sS'reservoir'
p2298
I3072
sS'stains'
p2299
I2656
sS'developed'
p2300
I3074
sS'flowers'
p2301
I660
sS'soon'
p2302
I441
sS'limply'
p2303
I3075
sS'held'
p2304
I357
sS'thermal'
p2305
I3077
sS'paper'
p2306
I816
sS'through'
p2307
I101
sS'signs'
p2308
I817
sS'hell'
p2309
I1061
sS'"it'
p2310
I661
sS'suffer'
p2311
I3078
sS'acqui'
p2312
I2865
sS'its'
p2313
I69
sS'logic'
p2314
I3079
sS'messed'
p2315
I3080
sS'style'
p2316
I2695
sS'rapidly'
p2317
I1528
sS'forwards'
p2318
I3154
sS'teenagers'
p2319
I3762
sS'"everyone'
p2320
I1858
sS'actually'
p2321
I1062
sS'late'
p2322
I564
sS'detected'
p2323
I3084
sS'parts'
p2324
I495
sS'alls'
p2325
I3085
sS'sailers'
p2326
I3103
sS'speaker'
p2327
I3934
sS'mounted'
p2328
I3018
sS'might'
p2329
I315
sS'grille'
p2330
I2789
sS'wouldn'
p2331
I1064
sS'hurting'
p2332
I3087
sS'evening'
p2333
I521
sS'return'
p2334
I818
sS'sucking'
p2335
I3088
sS'food'
p2336
I565
sS'contortions'
p2337
I3089
sS'noticing'
p2338
I3090
sS'slight'
p2339
I1651
sS'number'
p2340
I1492
sS'walls'
p2341
I1065
sS'grubby'
p2342
I3092
sS'vomit'
p2343
I819
sS'foot'
p2344
I820
sS'sighed'
p2345
I1538
sS'reminder'
p2346
I2583
sS'bigger'
p2347
I1530
sS'sucked'
p2348
I3095
sS'prayed'
p2349
I2708
sS'easily'
p2350
I1691
sS'gets'
p2351
I1767
sS'rots'
p2352
I3410
sS'liquefied'
p2353
I3096
sS'always'
p2354
I199
sS'spinning'
p2355
I3097
sS'stink'
p2356
I3098
sS'courses'
p2357
I2500
sS'someone'
p2358
I358
sS'murmured'
p2359
I3159
sS'stopped'
p2360
I286
sS'turns'
p2361
I3101
sS'found'
p2362
I259
sS'fairy'
p2363
I3102
sS'marry'
p2364
I2447
sS'heavy'
p2365
I1066
sS'status'
p2366
I2754
sS'everyone'
p2367
I821
sS'begged'
p2368
I3104
sS'mental'
p2369
I1700
sS'weight'
p2370
I662
sS'noble'
p2371
I3106
sS'unravelling'
p2372
I3107
sS'house'
p2373
I283
sS'fish'
p2374
I556
sS'hard'
p2375
I260
sS'scarves'
p2376
I3109
sS'idea'
p2377
I664
sS'expect'
p2378
I3110
sS'fist'
p2379
I3111
sS'murders'
p2380
I1880
sS'event'
p2381
I1037
sS'"yes'
p2382
I804
sS'anxious'
p2383
I3114
sS'flower'
p2384
I3115
sS'missed'
p2385
I3116
sS'withdraws'
p2386
I3117
sS'nakedness'
p2387
I3118
sS'visions'
p2388
I3162
sS'childish'
p2389
I3119
sS'since'
p2390
I359
sS'mattered'
p2391
I3120
sS'imploring'
p2392
I3121
sS'studying'
p2393
I3770
sS'acting'
p2394
I3122
sS'admired'
p2395
I2477
sS'safety'
p2396
I3123
sS'hill'
p2397
I3124
sS'7'
p2398
I3125
sS'print'
p2399
I1067
sS'flame'
p2400
I3127
sS'issue'
p2401
I3128
sS'"large'
p2402
I3129
sS'fled'
p2403
I3130
sS'nervously'
p2404
I1171
sS'bass'
p2405
I1346
sS'blaring'
p2406
I1532
sS'dirt'
p2407
I1069
sS'squished'
p2408
I3133
sS'friday'
p2409
I3136
sS'story'
p2410
I822
sS'advant'
p2411
I3137
sS'houses'
p2412
I1533
sS'reason'
p2413
I1534
sS'base'
p2414
I560
sS'imagine'
p2415
I665
sS'ask'
p2416
I666
sS'horse'
p2417
I3139
sS'rises'
p2418
I3140
sS'beginning'
p2419
I3141
sS'loads'
p2420
I3142
sS'pur'
p2421
I3143
sS'temperature'
p2422
I3164
sS'thrown'
p2423
I1535
sS'pairs'
p2424
I1514
sS'agitated'
p2425
I3145
sS'thread'
p2426
I3146
sS'launch'
p2427
I3147
sS'needing'
p2428
I1536
sS'terrible'
p2429
I3148
sS'scuffing'
p2430
I4027
sS'terribly'
p2431
I2215
sS'edges'
p2432
I790
sS'expecting'
p2433
I1071
sS'twenty'
p2434
I1544
sS'comforts'
p2435
I3549
sS'fallen'
p2436
I1537
sS'feed'
p2437
I3152
sS'seeming'
p2438
I3153
sS'stabs'
p2439
I3082
sS'feel'
p2440
I155
sS'knocking'
p2441
I1539
sS'reflected'
p2442
I1194
sS'twisted'
p2443
I3156
sS'feet'
p2444
I216
sS'sympathy'
p2445
I2326
sS'talked'
p2446
I2393
sS'done'
p2447
I823
sS'hangs'
p2448
I1540
sS'ethereal'
p2449
I3160
sS'changing'
p2450
I2761
sS'scoping'
p2451
I3161
sS'mist'
p2452
I1542
sS'miss'
p2453
I1531
sS'riding'
p2454
I3818
sS'razor'
p2455
I3163
sS'guess'
p2456
I824
sS'"'
p2457
I30
sS'heads'
p2458
I1543
sS'stymie'
p2459
I3043
sS'flock'
p2460
I2897
sS'leading'
p2461
I1072
sS'insignificant'
p2462
I3165
sS'threatening'
p2463
I3166
sS'least'
p2464
I334
sS'intense'
p2465
I3438
sS'paint'
p2466
I3167
sS'wonderful'
p2467
I1073
sS'passed'
p2468
I667
sS'trails'
p2469
I2396
sS'revel'
p2470
I3169
sS'fought'
p2471
I2300
sS'syllables'
p2472
I3170
sS'hundred'
p2473
I668
sS'quickens'
p2474
I3171
sS'store'
p2475
I335
sS'headache'
p2476
I3172
sS'shifted'
p2477
I3173
sS'lungfuls'
p2478
I3944
sS'bowed'
p2479
I1545
sS'muscles'
p2480
I3175
sS'pains'
p2481
I3176
sS'behind'
p2482
I187
sS'relieved'
p2483
I1546
sS'exploded'
p2484
I3177
sS'needle'
p2485
I1547
sS'park'
p2486
I3178
sS'antsy'
p2487
I3836
sS'luckily'
p2488
I3179
sS'part'
p2489
I566
sS'cheekbones'
p2490
I3180
sS'shifter'
p2491
I3181
sS'rifle'
p2492
I1549
sS'believe'
p2493
I442
sS'convinced'
p2494
I1257
sS'pecting'
p2495
I3183
sS'peaked'
p2496
I3184
sS'kind'
p2497
I287
sS'grew'
p2498
I669
sS'gotten'
p2499
I567
sS'grey'
p2500
I3185
sS'serene'
p2501
I3207
sS'stall'
p2502
I3186
sS'supposed'
p2503
I825
sS'shotgun'
p2504
I3946
sS'dispenser'
p2505
I3187
sS'stale'
p2506
I1074
sS'toward'
p2507
I3188
sS'stickiness'
p2508
I3190
sS'shirts'
p2509
I3191
sS'"lucky'
p2510
I2213
sS'uncomfortable'
p2511
I3192
sS'strengthen'
p2512
I3193
sS'hacking'
p2513
I3327
sS'alongside'
p2514
I3194
sS'barking'
p2515
I3956
sS'juice'
p2516
I3195
sS'caress'
p2517
I1550
sS'cleaned'
p2518
I1551
sS'creased'
p2519
I3196
sS'snagged'
p2520
I4046
sS'sensual'
p2521
I1591
sS'collapse'
p2522
I1234
sS'sell'
p2523
I1113
sS'mountain'
p2524
I261
sS'hopelessly'
p2525
I1553
sS'built'
p2526
I3199
sS'flared'
p2527
I2588
sS'depending'
p2528
I1554
sS'self'
p2529
I670
sS'cave'
p2530
I1095
sS'officers'
p2531
I1555
sS'lit'
p2532
I3203
sS'flares'
p2533
I1363
sS'without'
p2534
I395
sS'lip'
p2535
I1556
sS'bouncing'
p2536
I3204
sS'finding'
p2537
I827
sS'transparent'
p2538
I3205
sS'sels'
p2539
I3206
sS'play'
p2540
I613
sS'added'
p2541
I568
sS'warnings'
p2542
I3208
sS'eggs'
p2543
I497
sS'reach'
p2544
I498
sS'chart'
p2545
I3209
sS'depths'
p2546
I1557
sS'most'
p2547
I262
sS'hopeless'
p2548
I2018
sS'73'
p2549
I2811
sS'plan'
p2550
I1075
sS'moss'
p2551
I2674
sS'position'
p2552
I3952
sS'nothing'
p2553
I143
sS'wastes'
p2554
I3213
sS'refrigerator'
p2555
I1076
sS'constructed'
p2556
I3215
sS'bug'
p2557
I3214
sS'seize'
p2558
I3217
sS'windows'
p2559
I1077
sS'clear'
p2560
I403
sS'sometimes'
p2561
I404
sS'snapping'
p2562
I1548
sS'cramped'
p2563
I1559
sS'clean'
p2564
I671
sS'convulse'
p2565
I2401
sS'flattened'
p2566
I2912
sS'latest'
p2567
I3954
sS'giggles'
p2568
I3218
sS'cruiser'
p2569
I361
sS'wailing'
p2570
I3219
sS'fond'
p2571
I2970
sS'scattered'
p2572
I1078
sS'stumped'
p2573
I3221
sS'booze'
p2574
I3222
sS'session'
p2575
I3223
sS'crayon'
p2576
I828
sS'contorted'
p2577
I3224
sS'carefully'
p2578
I829
sS'fine'
p2579
I672
sS'find'
p2580
I200
sS'shits'
p2581
I3009
sS'stubble'
p2582
I1562
sS'access'
p2583
I3225
sS'giant'
p2584
I673
sS'dividing'
p2585
I3226
sS'stairs'
p2586
I3182
sS'flesh'
p2587
I674
sS'grotesque'
p2588
I3228
sS'rotten'
p2589
I3229
sS'aren'
p2590
I3230
sS'failed'
p2591
I3231
sS'swarmed'
p2592
I4045
sS'pretty'
p2593
I830
sS'circle'
p2594
I3233
sS'discuss'
p2595
I3003
sS'"good'
p2596
I2044
sS'his'
p2597
I14
sS'hit'
p2598
I831
sS'distance'
p2599
I316
sS'sights'
p2600
I3500
sS'capital'
p2601
I2997
sS'sunny'
p2602
I3237
sS'assumed'
p2603
I3238
sS'trees'
p2604
I362
sS'speckled'
p2605
I3239
sS'blank'
p2606
I3240
sS'whistle'
p2607
I3241
sS'feels'
p2608
I1564
sS'courage'
p2609
I3242
sS'hid'
p2610
I3243
sS'pretending'
p2611
I1565
sS'reply'
p2612
I964
sS'during'
p2613
I1079
sS'silk'
p2614
I3244
sS'him'
p2615
I23
sS'affront'
p2616
I4087
sS'catches'
p2617
I1080
sS'spikes'
p2618
I1568
sS'noises'
p2619
I1081
sS'cries'
p2620
I3247
sS'pleasures'
p2621
I3248
sS'nibbles'
p2622
I3249
sS'cry'
p2623
I569
sS'remove'
p2624
I3250
sS'perfume'
p2625
I3251
sS'gloves'
p2626
I2584
sS'cease'
p2627
I3253
sS'wrote'
p2628
I3254
sS'scanning'
p2629
I3256
sS'seventeen'
p2630
I3257
sS'set'
p2631
I336
sS'scruffy'
p2632
I3258
sS'dump'
p2633
I3259
sS'throwing'
p2634
I1569
sS'lifetimes'
p2635
I3260
sS'crackle'
p2636
I3261
sS'seventhirty'
p2637
I3262
sS'sex'
p2638
I499
sS'mantra'
p2639
I3263
sS'see'
p2640
I65
sS'bare'
p2641
I1570
sS'are'
p2642
I75
sS'surrendered'
p2643
I3264
sS'tender'
p2644
I3265
sS'close'
p2645
I231
sS'arm'
p2646
I363
sS'locals'
p2647
I3266
sS'feared'
p2648
I3267
sS'knees'
p2649
I500
sS'glistening'
p2650
I1134
sS'horrid'
p2651
I3269
sS'muted'
p2652
I3270
sS'pictures'
p2653
I1135
sS'consuming'
p2654
I4008
sS'please'
p2655
I3272
sS'blurs'
p2656
I1572
sS'degrading'
p2657
I3273
sS'won'
p2658
I1082
sS'various'
p2659
I3274
sS'probably'
p2660
I405
sS'burned'
p2661
I1719
sS'bellies'
p2662
I3276
sS'numerous'
p2663
I1574
sS'monsters'
p2664
I3277
sS'piss'
p2665
I3278
sS'knowing'
p2666
I832
sS'pushing'
p2667
I1659
sS'recently'
p2668
I1576
sS'perusal'
p2669
I3493
sS'spun'
p2670
I1738
sS'intimidated'
p2671
I3280
sS'sold'
p2672
I833
sS'attention'
p2673
I1083
sS'spray'
p2674
I834
sS'blot'
p2675
I3281
sS'"not'
p2676
I3282
sS'betrayed'
p2677
I3283
sS'giggle'
p2678
I3596
sS'remaining'
p2679
I3284
sS'abruptly'
p2680
I3210
sS'both'
p2681
I364
sS'evaporated'
p2682
I3286
sS'last'
p2683
I217
sS'reverse'
p2684
I3287
sS'license'
p2685
I1084
sS'tipping'
p2686
I1423
sS'barely'
p2687
I3289
sS'baking'
p2688
I3051
sS'sensitive'
p2689
I3291
sS'connection'
p2690
I1577
sS'became'
p2691
I1085
sS'wrappers'
p2692
I3292
sS'buzz'
p2693
I724
sS'focused'
p2694
I1579
sS'bond'
p2695
I1580
sS'whole'
p2696
I444
sS'load'
p2697
I1581
sS'liked'
p2698
I406
sS'onward'
p2699
I3963
sS'distress'
p2700
I3294
sS'point'
p2701
I1086
sS'simple'
p2702
I3295
sS'sweet'
p2703
I407
sS'acted'
p2704
I3296
sS'community'
p2705
I3297
sS'hollow'
p2706
I3298
sS'revving'
p2707
I3299
sS'simply'
p2708
I676
sS'likes'
p2709
I3300
sS'mattress'
p2710
I3301
sS'mission'
p2711
I2666
sS'suspenders'
p2712
I1242
sS'weaving'
p2713
I4011
sS'publishing'
p2714
I3304
sS'pt'
p2715
I337
sS'damp'
p2716
I3305
sS'blink'
p2717
I3891
sS'appears'
p2718
I2863
sS'hitting'
p2719
I1583
sS'rattle'
p2720
I1584
sS'secret'
p2721
I501
sS'dropping'
p2722
I3307
sS'damn'
p2723
I3308
sS'blueness'
p2724
I3309
sS'maintenance'
p2725
I3310
sS'threaten'
p2726
I3311
sS'meeting'
p2727
I3312
sS'po'
p2728
I3313
sS'empty'
p2729
I1585
sS'spirals'
p2730
I3314
sS'firm'
p2731
I3040
sS'resting'
p2732
I836
sS'lived'
p2733
I677
sS'raced'
p2734
I1087
sS'sending'
p2735
I2623
sS'fire'
p2736
I1088
sS'infect'
p2737
I3317
sS'gas'
p2738
I1586
sS'fluids'
p2739
I3517
sS'else'
p2740
I408
sS'vaguely'
p2741
I3318
sS'races'
p2742
I3319
sS'understand'
p2743
I678
sS'specifically'
p2744
I2653
sS'station'
p2745
I3041
sS'prices'
p2746
I3320
sS'wheeled'
p2747
I1826
sS'hardness'
p2748
I3322
sS'plants'
p2749
I1089
sS'presses'
p2750
I1837
sS'stolen'
p2751
I3324
sS'fur'
p2752
I3325
sS'look'
p2753
I104
sS'slyly'
p2754
I1844
sS'raw'
p2755
I1090
sS'solid'
p2756
I1091
sS'straight'
p2757
I1092
sS'bill'
p2758
I972
sS'batch'
p2759
I1705
sS'fug'
p2760
I2176
sS'while'
p2761
I263
sS'pressed'
p2762
I1589
sS'fun'
p2763
I502
sS'ful'
p2764
I3328
sS'guide'
p2765
I679
sS'pack'
p2766
I3329
sS'gracious'
p2767
I3330
sS'grip'
p2768
I1461
sS'larger'
p2769
I1093
sS'hoping'
p2770
I3331
sS'violently'
p2771
I680
sS'awaits'
p2772
I3850
sS'gunned'
p2773
I3775
sS'itself'
p2774
I503
sS'frantic'
p2775
I3333
sS'beautifully'
p2776
I3246
sS'ready'
p2777
I1590
sS'"look'
p2778
I1870
sS'vanish'
p2779
I3336
sS'anguish'
p2780
I3337
sS'hellos'
p2781
I3338
sS'frown'
p2782
I3339
sS'chauffeur'
p2783
I3340
sS'funny'
p2784
I3341
sS'shirt'
p2785
I570
sS'anymore'
p2786
I1202
sS'disappearance'
p2787
I3969
sS'problems'
p2788
I3344
sS'fountain'
p2789
I3345
sS'delicious'
p2790
I3346
sS'vulnerable'
p2791
I3197
sS'9'
p2792
I3347
sS'descended'
p2793
I3348
sS'heightening'
p2794
I3198
sS'higher'
p2795
I1592
sS'lid'
p2796
I1552
sS'maneuv'
p2797
I3350
sS'used'
p2798
I324
sS'scarcely'
p2799
I3945
sS'lie'
p2800
I3351
sS'flooded'
p2801
I3352
sS'cigar'
p2802
I3353
sS'stacy'
p2803
I264
sS'moment'
p2804
I188
sS'leapt'
p2805
I3354
sS'arrived'
p2806
I1094
sS'flitting'
p2807
I3355
sS'priceless'
p2808
I3356
sS'bob'
p2809
I3357
sS'recent'
p2810
I1596
sS'dark'
p2811
I398
sS'lower'
p2812
I1597
sS'ironically'
p2813
I2629
sS'escapades'
p2814
I3200
sS'spent'
p2815
I838
sS'obviously'
p2816
I3361
sS'concrete'
p2817
I2062
sS'priced'
p2818
I4078
sS'edge'
p2819
I445
sS'withdraw'
p2820
I2069
sS'magnifies'
p2821
I3365
sS'"out'
p2822
I3366
sS'bounced'
p2823
I3367
sS'flowing'
p2824
I3236
sS'spend'
p2825
I605
sS'howl'
p2826
I3370
sS'distances'
p2827
I3371
sS'watching'
p2828
I3372
sS'empowered'
p2829
I3201
sS'powering'
p2830
I2089
sS'aroma'
p2831
I1598
sS'"interesting'
p2832
I3374
sS'distracting'
p2833
I3375
sS'shape'
p2834
I2112
sS'cocky'
p2835
I3377
sS'world'
p2836
I504
sS'regardless'
p2837
I3378
sS'crackles'
p2838
I3379
sS'expelled'
p2839
I2961
sS'crested'
p2840
I3381
sS'coun'
p2841
I3382
sS'letting'
p2842
I2028
sS'cut'
p2843
I532
sS'humour'
p2844
I3386
sS'also'
p2845
I360
sS'hated'
p2846
I1599
sS'workers'
p2847
I1571
sS'danger'
p2848
I1600
sS'kissed'
p2849
I2353
sS'throats'
p2850
I3389
sS'source'
p2851
I3390
sS'lifts'
p2852
I3391
sS'parents'
p2853
I840
sS'rear'
p2854
I2802
sS'crying'
p2855
I505
sS'snap'
p2856
I3392
sS'excited'
p2857
I1601
sS'surprised'
p2858
I841
sS'customers'
p2859
I1624
sS'confession'
p2860
I1665
sS'radiator'
p2861
I3394
sS'audibly'
p2862
I3395
sS'big'
p2863
I265
sS'couple'
p2864
I1284
sS'clutched'
p2865
I3397
sS'private'
p2866
I3202
sS'necessary'
p2867
I3979
sS'bit'
p2868
I1603
sS'sharpened'
p2869
I3399
sS'wings'
p2870
I3400
sS'translucent'
p2871
I3401
sS'outright'
p2872
I3402
sS'd'
p2873
I156
sS'follows'
p2874
I1604
sS'glove'
p2875
I1605
sS'ignore'
p2876
I684
sS'bulge'
p2877
I3981
sS'ai'
p2878
I3404
sS'continue'
p2879
I3405
sS'wrecked'
p2880
I3406
sS'jolted'
p2881
I3407
sS'softness'
p2882
I3408
sS'foolish'
p2883
I1606
sS'walrus'
p2884
I2277
sS'healthy'
p2885
I2422
sS'privately'
p2886
I3586
sS'pallid'
p2887
I2579
sS'eldritch'
p2888
I3411
sS'often'
p2889
I685
sS'flurry'
p2890
I3412
sS'fucking'
p2891
I1097
sS'spring'
p2892
I3413
sS'eurysm'
p2893
I2437
sS'some'
p2894
I60
sS'back'
p2895
I39
sS'bounce'
p2896
I3414
sS'ah'
p2897
I3415
sS'understood'
p2898
I953
sS'lips'
p2899
I571
sS'towards'
p2900
I266
sS'palm'
p2901
I3417
sS'"we'
p2902
I1609
sS'sight'
p2903
I424
sS'mirror'
p2904
I572
sS'pale'
p2905
I1098
sS'hmmmm'
p2906
I3419
sS'discarded'
p2907
I3420
sS'gradually'
p2908
I1099
sS'acquaintance'
p2909
I3421
sS'jewelry'
p2910
I3422
sS'envied'
p2911
I2575
sS'claw'
p2912
I3435
sS'vocalizations'
p2913
I3424
sS'per'
p2914
I3425
sS'cupped'
p2915
I1610
sS'pen'
p2916
I3426
sS'manipulate'
p2917
I3590
sS'welling'
p2918
I3427
sS'ornate'
p2919
I3428
sS'temple'
p2920
I1611
sS't'
p2921
I33
sS'be'
p2922
I43
sS'claimed'
p2923
I3925
sS'eating'
p2924
I625
sS'remembered'
p2925
I695
sS'bartender'
p2926
I3429
sS'lose'
p2927
I3986
sS'baited'
p2928
I3430
sS'agreement'
p2929
I3431
sS'step'
p2930
I1613
sS'chanting'
p2931
I3432
sS'nowhere'
p2932
I3433
sS'consolation'
p2933
I3434
sS'served'
p2934
I2810
sS'ache'
p2935
I3436
sS'obscured'
p2936
I1614
sS'ochre'
p2937
I3437
sS'by'
p2938
I112
sS'cautious'
p2939
I3439
sS'bristling'
p2940
I1101
sS'anything'
p2941
I317
sS'wore'
p2942
I1914
sS'reappear'
p2943
I3441
sS'conversation'
p2944
I3442
sS'firing'
p2945
I3443
sS'wrinkles'
p2946
I1616
sS'bestseller'
p2947
I3444
sS'forgave'
p2948
I3446
sS'mumble'
p2949
I3302
sS'experiences'
p2950
I3211
sS'"right'
p2951
I2561
sS'shiny'
p2952
I3448
sS'daisies'
p2953
I1617
sS'silence'
p2954
I686
sS'seeing'
p2955
I446
sS'thighs'
p2956
I1372
sS'letter'
p2957
I1618
sS'snatches'
p2958
I3449
sS'into'
p2959
I41
sS'within'
p2960
I1102
sS'invading'
p2961
I3450
sS'selected'
p2962
I1864
sS'vagabond'
p2963
I3451
sS'sized'
p2964
I3983
sS'lesson'
p2965
I3452
sS'"see'
p2966
I2101
sS'smells'
p2967
I843
sS'stench'
p2968
I1620
sS'caressed'
p2969
I844
sS'rows'
p2970
I2562
sS'sad'
p2971
I2616
sS'harnessed'
p2972
I3454
sS'spam'
p2973
I3455
sS'placing'
p2974
I3456
sS'question'
p2975
I506
sS'vigour'
p2976
I3457
sS'fast'
p2977
I994
sS'creaked'
p2978
I1621
sS'forward'
p2979
I409
sS'rhetorical'
p2980
I3458
sS'spat'
p2981
I3460
sS'considerably'
p2982
I3461
sS'himself'
p2983
I338
sS'perplexing'
p2984
I3462
sS'inches'
p2985
I3463
sS'filet'
p2986
I3464
sS'collapsed'
p2987
I1103
sS'frost'
p2988
I1104
sS'admonishment'
p2989
I2636
sS'birthmark'
p2990
I3255
sS'boys'
p2991
I267
sS'larry'
p2992
I447
sS'tragically'
p2993
I3467
sS'line'
p2994
I845
sS'reek'
p2995
I3468
sS'reel'
p2996
I1623
sS'schunemunk'
p2997
I2097
sS'posted'
p2998
I2660
sS'fades'
p2999
I3470
sS'tempered'
p3000
I3471
sS'travelling'
p3001
I3086
sS'viciously'
p3002
I3216
sS'skull'
p3003
I687
sS'stumbling'
p3004
I3472
sS'up'
p3005
I37
sS'us'
p3006
I268
sS'um'
p3007
I3473
sS'un'
p3008
I1106
sS'cautiously'
p3009
I2691
sS'uh'
p3010
I3474
sS'faded'
p3011
I1625
sS'fried'
p3012
I3476
sS'landscapes'
p3013
I3235
sS'called'
p3014
I244
sS'yelled'
p3015
I846
sS'bell'
p3016
I1107
sS'partition'
p3017
I3479
sS'hash'
p3018
I2977
sS'"stacy'
p3019
I1466
sS'expedition'
p3020
I1626
sS'm'
p3021
I207
sS'listening'
p3022
I3482
sS'doesn'
p3023
I507
sS'single'
p3024
I1108
sS'warning'
p3025
I3483
sS'johnsons'
p3026
I3484
sS'curl'
p3027
I1627
sS'dragging'
p3028
I1453
sS'hissing'
p3029
I1782
sS'lemon'
p3030
I3487
sS'retrace'
p3031
I3488
sS'tara'
p3032
I130
sS'peace'
p3033
I1110
sS'scares'
p3034
I3995
sS'occasional'
p3035
I3489
sS'application'
p3036
I3490
sS'awoke'
p3037
I3105
sS'receiver'
p3038
I3747
sS'rid'
p3039
I3335
sS'grind'
p3040
I3491
sS'ferent'
p3041
I1629
sS'scurrying'
p3042
I3492
sS'tart'
p3043
I1029
sS'brushing'
p3044
I1631
sS'shrug'
p3045
I1936
sS'draw'
p3046
I847
sS'energetic'
p3047
I3494
sS'beginnings'
p3048
I3495
sS'crouching'
p3049
I3496
sS'faintly'
p3050
I1111
sS'prepared'
p3051
I1632
sS'helping'
p3052
I1112
sS'intensified'
p3053
I3497
sS'rise'
p3054
I1938
sS'smiled'
p3055
I288
sS'fisher'
p3056
I1633
sS'missile'
p3057
I3598
sS'desert'
p3058
I1036
sS'rightful'
p3059
I3501
sS'ago'
p3060
I508
sS'neglectful'
p3061
I2858
sS'land'
p3062
I1634
sS'e'
p3063
I3503
sS'fluorescence'
p3064
I3504
sS'practically'
p3065
I3505
sS'age'
p3066
I688
sS'required'
p3067
I3506
sS'holes'
p3068
I1635
sS'walked'
p3069
I189
sS'notion'
p3070
I3507
sS'depth'
p3071
I1636
sS'weights'
p3072
I3508
sS'urgency'
p3073
I3509
sS'literally'
p3074
I3998
sS'fresh'
p3075
I575
sS'menace'
p3076
I3510
sS'sounded'
p3077
I1042
sS'once'
p3078
I289
sS'tattooing'
p3079
I3511
sS'gt'
p3080
I1638
sS'dawning'
p3081
I3512
sS'wingtips'
p3082
I3513
sS'jittering'
p3083
I3514
sS'melts'
p3084
I3515
sS'scratch'
p3085
I1639
sS'gobbled'
p3086
I1841
sS'slick'
p3087
I2821
sS'alien'
p3088
I848
sS'pulsing'
p3089
I2951
sS'groceries'
p3090
I1640
sS'jiggle'
p3091
I2822
sS'go'
p3092
I177
sS'shrugged'
p3093
I1641
sS'issues'
p3094
I3521
sS'seemed'
p3095
I114
sS'penis'
p3096
I3600
sS'stunned'
p3097
I2689
sS'shouldn'
p3098
I2981
sS'concerned'
p3099
I3523
sS'peering'
p3100
I1642
sS'stave'
p3101
I3524
sS'young'
p3102
I849
sS'send'
p3103
I1643
sS'nose'
p3104
I1114
sS'slips'
p3105
I3315
sS'teardrop'
p3106
I3526
sS'contours'
p3107
I2283
sS'frisbees'
p3108
I3528
sS'quarterly'
p3109
I3529
sS'steeled'
p3110
I3481
sS'friendly'
p3111
I1644
sS'indicating'
p3112
I3531
sS'stocked'
p3113
I3532
sS'breathing'
p3114
I851
sS'garden'
p3115
I410
sS'dessert'
p3116
I3533
sS'reopened'
p3117
I3534
sS'moun'
p3118
I3535
sS'wave'
p3119
I3057
sS'forgiven'
p3120
I4004
sS'"are'
p3121
I1806
sS'traced'
p3122
I3679
sS'telling'
p3123
I1115
sS'drinking'
p3124
I1645
sS'continued'
p3125
I448
sS'entire'
p3126
I3540
sS'incoherent'
p3127
I3541
sS'stiff'
p3128
I3542
sS'transmission'
p3129
I3099
sS'positions'
p3130
I3543
sS'joel'
p3131
I690
sS'shock'
p3132
I1647
sS'flickered'
p3133
I3544
sS'try'
p3134
I319
sS'blurry'
p3135
I3852
sS'dealt'
p3136
I3546
sS'settlers'
p3137
I3547
sS'challenge'
p3138
I3548
sS'anticipative'
p3139
I3150
sS'pleas'
p3140
I1648
sS'smaller'
p3141
I577
sS'gripping'
p3142
I3550
sS'curtly'
p3143
I3551
sS'crow'
p3144
I3552
sS'seventies'
p3145
I3553
sS'sensation'
p3146
I1116
sS'boots'
p3147
I3554
sS'licensed'
p3148
I2481
sS'jump'
p3149
I3556
sS'booth'
p3150
I1117
sS'picked'
p3151
I852
sS'exuberant'
p3152
I1649
sS'growing'
p3153
I2473
sS'manipulating'
p3154
I3557
sS'grooves'
p3155
I3558
sS'acid'
p3156
I1650
sS'depression'
p3157
I3559
sS'victor'
p3158
I115
sS'graduating'
p3159
I3560
sS'south'
p3160
I3561
sS'sausage'
p3161
I3562
sS'power'
p3162
I853
sS'squeeze'
p3163
I3809
sS'reaching'
p3164
I648
sS'moan'
p3165
I3563
sS'cell'
p3166
I1652
sS'paying'
p3167
I3343
sS'waiting'
p3168
I365
sS'applesauce'
p3169
I3232
sS'unmercifully'
p3170
I3566
sS'pleading'
p3171
I1653
sS'itching'
p3172
I2831
sS'rotted'
p3173
I3568
sS'irreparable'
p3174
I3607
sS'bird'
p3175
I1655
sS'body'
p3176
I245
sS'impact'
p3177
I1656
sS'led'
p3178
I854
sS'chose'
p3179
I3569
sS'leg'
p3180
I1657
sS'ments'
p3181
I2918
sS'gathered'
p3182
I1658
sS'kidnapper'
p3183
I1575
sS'wraps'
p3184
I3570
sS'believed'
p3185
I1660
sS'explore'
p3186
I3290
sS'unthinking'
p3187
I3572
sS'let'
p3188
I218
sS'sink'
p3189
I1661
sS'others'
p3190
I855
sS'"fine'
p3191
I3573
sS'squirming'
p3192
I3574
sS'joins'
p3193
I2922
sS'settling'
p3194
I3575
sS'great'
p3195
I366
sS'bites'
p3196
I1714
sS'30'
p3197
I1030
sS'shades'
p3198
I3577
sS'leaving'
p3199
I1758
sS'peristalsis'
p3200
I3579
sS'evading'
p3201
I3580
sS'nervous'
p3202
I3227
sS'buttresses'
p3203
I3581
sS'climb'
p3204
I856
sS'makes'
p3205
I1662
sS'examining'
p3206
I3582
sS'named'
p3207
I1663
sS'apple'
p3208
I320
sS'scales'
p3209
I1105
sS'limp'
p3210
I1664
sS'manage'
p3211
I683
sS'mice'
p3212
I2875
sS'baskets'
p3213
I2150
sS'scaled'
p3214
I3583
sS'snapped'
p3215
I4010
sS'stupider'
p3216
I3585
sS'names'
p3217
I1607
sS'motor'
p3218
I3587
sS'bindings'
p3219
I3588
sS'sugar'
p3220
I3589
sS'cloud'
p3221
I1100
sS'announced'
p3222
I3591
sS'standing'
p3223
I367
sS'use'
p3224
I509
sS'fee'
p3225
I1666
sS'from'
p3226
I34
sS'stream'
p3227
I2480
sS'inspiration'
p3228
I4033
sS'remains'
p3229
I1118
sS'fitfully'
p3230
I3592
sS'next'
p3231
I290
sS'few'
p3232
I131
sS'doubt'
p3233
I1668
sS'crab'
p3234
I3593
sS'vehicle'
p3235
I1669
sS'themselves'
p3236
I1671
sS'oily'
p3237
I1672
sS'cheeks'
p3238
I749
sS'sort'
p3239
I3594
sS'popped'
p3240
I1119
sS'cackle'
p3241
I3595
sS'"nah'
p3242
I3004
sS'started'
p3243
I132
sS'becomes'
p3244
I858
sS'local'
p3245
I3819
sS'about'
p3246
I57
sS'infection'
p3247
I3597
sS'fuck'
p3248
I2482
sS'trail'
p3249
I1673
sS'carrying'
p3250
I3599
sS'sharply'
p3251
I1674
sS'tattered'
p3252
I1675
sS'baby'
p3253
I1357
sS'tearing'
p3254
I1676
sS'women'
p3255
I1121
sS'customer'
p3256
I3601
sS'couraged'
p3257
I3602
sS'account'
p3258
I1677
sS'balls'
p3259
I3603
sS'announcing'
p3260
I3604
sS'this'
p3261
I45
sS'ride'
p3262
I1678
sS'frothed'
p3263
I2633
sS'gruff'
p3264
I3605
sS'anywhere'
p3265
I3565
sS'obvious'
p3266
I1654
sS'thin'
p3267
I1679
sS'gunshots'
p3268
I3608
sS'meet'
p3269
I1680
sS'closing'
p3270
I693
sS'drops'
p3271
I3609
sS'dissolve'
p3272
I3578
sS'proof'
p3273
I3611
sS'control'
p3274
I1122
sS'pocked'
p3275
I3612
sS'slid'
p3276
I1123
sS'bent'
p3277
I1681
sS'patron'
p3278
I3613
sS'monolithlike'
p3279
I3614
sS'discussed'
p3280
I2839
sS'dripping'
p3281
I1683
sS'transpired'
p3282
I3617
sS'pieces'
p3283
I3618
sS'high'
p3284
I449
sS'pulling'
p3285
I1684
sS'something'
p3286
I107
sS'slip'
p3287
I1685
sS'bones'
p3288
I859
sS'stories'
p3289
I4048
sS'standard'
p3290
I2010
sS'darkening'
p3291
I3619
sS'rape'
p3292
I3620
sS'sir'
p3293
I1687
sS'rumble'
p3294
I3621
sS'kane'
p3295
I1688
sS'shuffled'
p3296
I3622
sS'sit'
p3297
I860
sS'paled'
p3298
I3623
sS'six'
p3299
I694
sS'swear'
p3300
I3625
sS'forest'
p3301
I3626
sS'animal'
p3302
I1689
sS'hormones'
p3303
I3627
sS'slamming'
p3304
I3628
sS'instead'
p3305
I579
sS'struggled'
p3306
I3486
sS'weakened'
p3307
I3630
sS'panic'
p3308
I1690
sS'sweat'
p3309
I881
sS'watery'
p3310
I3631
sS'"had'
p3311
I3632
sS'cobwebs'
p3312
I3633
sS'stammered'
p3313
I3478
sS'neighbor'
p3314
I3635
sS'farm'
p3315
I1711
sS'watch'
p3316
I219
sS'wristwatch'
p3317
I3636
sS'tied'
p3318
I1692
sS'glint'
p3319
I3637
sS'throbs'
p3320
I3638
sS'notebook'
p3321
I3639
sS'preferring'
p3322
I3640
sS'whistles'
p3323
I4017
sS'fits'
p3324
I3641
sS'tomb'
p3325
I3642
sS'tomato'
p3326
I1693
sS'realized'
p3327
I1694
sS'drop'
p3328
I712
sS'light'
p3329
I339
sS'counter'
p3330
I368
sS'lines'
p3331
I1695
sS'interrupted'
p3332
I1686
sS'gesturing'
p3333
I3384
sS'blocking'
p3334
I3645
sS'crawling'
p3335
I3646
sS'smiles'
p3336
I3647
sS'born'
p3337
I3648
sS'lined'
p3338
I3649
sS'respectable'
p3339
I3650
sS'bathing'
p3340
I3651
sS'rusted'
p3341
I3652
sS'closely'
p3342
I1697
sS'padded'
p3343
I3653
sS'poking'
p3344
I2486
sS'minnow'
p3345
I3654
sS'move'
p3346
I703
sS'produced'
p3347
I3656
sS'hugged'
p3348
I3657
sS'rendered'
p3349
I3658
sS'looks'
p3350
I411
sS'horns'
p3351
I3659
sS'paperbacks'
p3352
I3660
sS'polished'
p3353
I4019
sS'spasmodic'
p3354
I3662
sS'curling'
p3355
I3663
sS'perfect'
p3356
I1699
sS'1'
p3357
I2201
sS'chosen'
p3358
I3664
sS'll'
p3359
I269
sS'labor'
p3360
I3665
sS'willing'
p3361
I1990
sS'degrees'
p3362
I3667
sS'choose'
p3363
I1126
sS'orange'
p3364
I3668
sS'covered'
p3365
I1701
sS'crowds'
p3366
I3669
sS'dad'
p3367
I96
sS'ruined'
p3368
I2685
sS'crash'
p3369
I1702
sS'greater'
p3370
I3670
sS'"some'
p3371
I3671
sS'cover'
p3372
I1558
sS'flew'
p3373
I3672
sS'mention'
p3374
I1703
sS'cutting'
p3375
I3673
sS'kiss'
p3376
I1704
sS'hands'
p3377
I119
sS'front'
p3378
I116
sS'day'
p3379
I163
sS'grinding'
p3380
I4001
sS'worlds'
p3381
I2033
sS'feedbooks'
p3382
I3676
sS'"\'cause'
p3383
I3677
sS'university'
p3384
I3678
sS'eased'
p3385
I1646
sS'feast'
p3386
I3680
sS'mouthed'
p3387
I2308
sS'reloading'
p3388
I3682
sS'slipping'
p3389
I3683
sS'bil'
p3390
I3393
sS'betty'
p3391
I510
sS'truth'
p3392
I696
sS'rite'
p3393
I3832
sS'crossing'
p3394
I3684
sS'accompanied'
p3395
I1787
sS'beneath'
p3396
I511
sS'bills'
p3397
I3685
sS'shaking'
p3398
I697
sS'experienced'
p3399
I3686
sS'upward'
p3400
I3687
sS'ankles'
p3401
I1707
sS'doing'
p3402
I862
sS'adventure'
p3403
I3688
sS'apologize'
p3404
I2853
sS'winked'
p3405
I1708
sS'snaps'
p3406
I3690
sS'books'
p3407
I512
sS'thirteen'
p3408
I1127
sS'measure'
p3409
I3691
sS'jagged'
p3410
I3692
sS'our'
p3411
I581
sS'grilles'
p3412
I3693
sS'sexual'
p3413
I1709
sS'wander'
p3414
I3694
sS'special'
p3415
I3695
sS'out'
p3416
I38
sS'lukewarm'
p3417
I3696
sS'littered'
p3418
I1710
sS'occupied'
p3419
I3697
sS'eyelids'
p3420
I3698
sS'furiously'
p3421
I3634
sS'wholly'
p3422
I3699
sS'busying'
p3423
I2730
sS'dominated'
p3424
I3700
sS'bunches'
p3425
I1814
sS'unprepared'
p3426
I3702
sS'caramel'
p3427
I3252
sS'cause'
p3428
I1712
sS'marvelled'
p3429
I3705
sS'red'
p3430
I178
sS'shut'
p3431
I582
sS'approached'
p3432
I3363
sS'eighty'
p3433
I3707
sS'withering'
p3434
I3708
sS'projectile'
p3435
I3709
sS'fourteen'
p3436
I3710
sS'completely'
p3437
I513
sS'surely'
p3438
I1713
sS'york'
p3439
I863
sS'keys'
p3440
I3711
sS'doubles'
p3441
I3712
sS'mumbles'
p3442
I3629
sS'bleed'
p3443
I896
sS'quo'
p3444
I3713
sS'"can'
p3445
I1129
sS'backwards'
p3446
I3714
sS'yard'
p3447
I1910
sS'reeled'
p3448
I3332
sS'route'
p3449
I1130
sS'scars'
p3450
I3717
sS'keep'
p3451
I583
sS'chilly'
p3452
I1715
sS'length'
p3453
I584
sS'birthday'
p3454
I2498
sS'harwinski'
p3455
I2860
sS'cain'
p3456
I81
sS'secretary'
p3457
I3719
sS'waitress'
p3458
I699
sS'rudely'
p3459
I1955
sS'staggered'
p3460
I1959
sS'urgent'
p3461
I3416
sS'scene'
p3462
I1717
sS'reaches'
p3463
I1977
sS'mortgage'
p3464
I3724
sS'embarrassed'
p3465
I2988
sS'"uh'
p3466
I3726
sS'owner'
p3467
I3727
sS'reached'
p3468
I340
sS'scent'
p3469
I1718
sS'sisters'
p3470
I3158
sS'vulgar'
p3471
I3728
sS'accent'
p3472
I3729
sS'ripples'
p3473
I3730
sS'eighth'
p3474
I3731
sS'their'
p3475
I97
sS'dissolution'
p3476
I2642
sS'mindless'
p3477
I3733
sS'gobbet'
p3478
I2039
sS'wrapped'
p3479
I1720
sS'rippled'
p3480
I3735
sS'interjected'
p3481
I3736
sS'final'
p3482
I864
sS'boil'
p3483
I3737
sS'beard'
p3484
I700
sS'ironic'
p3485
I2744
sS'shell'
p3486
I3739
sS'stomach'
p3487
I585
sS'gear'
p3488
I1721
sS'shelf'
p3489
I1722
sS'explanation'
p3490
I1723
sS'exactly'
p3491
I514
sS'spatters'
p3492
I3740
sS'hitching'
p3493
I3741
sS'powdered'
p3494
I4032
sS'undernourished'
p3495
I3643
sS'purposes'
p3496
I3744
sS'natural'
p3497
I1192
sS'overwhelming'
p3498
I3746
sS'herself'
p3499
I701
sS'haven'
p3500
I2571
sS'coughed'
p3501
I3748
sS'neck'
p3502
I1131
sS'loved'
p3503
I412
sS'glamorous'
p3504
I1132
sS'johnson'
p3505
I1133
sS'boring'
p3506
I1724
sS'thrashing'
p3507
I3749
sS'beg'
p3508
I1386
sS'bed'
p3509
I586
sS'screeching'
p3510
I3751
sS'stupidly'
p3511
I3752
sS'"got'
p3512
I3753
sS'loves'
p3513
I2137
sS'lover'
p3514
I3755
sS'flashes'
p3515
I1725
sS'indistinct'
p3516
I3756
sS'torrent'
p3517
I3757
sS'collecting'
p3518
I3758
sS'straps'
p3519
I3759
sS'outwardly'
p3520
I3760
sS'lightly'
p3521
I1273
sS'splatter'
p3522
I1726
sS'gently'
p3523
I2173
sS'comfortable'
p3524
I3763
sS'tonight'
p3525
I1727
sS'comfortably'
p3526
I3764
sS'cavern'
p3527
I3765
sS'have'
p3528
I35
sS'need'
p3529
I270
sS'curved'
p3530
I3766
sS'clearly'
p3531
I1729
sS'roiling'
p3532
I2209
sS'afraid'
p3533
I3768
sS'angle'
p3534
I3769
sS'bleached'
p3535
I1630
sS'able'
p3536
I866
sS'gingerly'
p3537
I1897
sS'instance'
p3538
I2229
sS'belief'
p3539
I3132
sS'concerns'
p3540
I3773
sS'which'
p3541
I232
sS'handpainted'
p3542
I3774
sS'truck'
p3543
I1615
sS'bitterly'
p3544
I3776
sS'subject'
p3545
I3777
sS'vegetation'
p3546
I3778
sS'glancing'
p3547
I1527
sS'regard'
p3548
I2871
sS'relatively'
p3549
I3349
sS'ostracized'
p3550
I1913
sS'who'
p3551
I113
sS'satisfy'
p3552
I3780
sS'scrolled'
p3553
I3157
sS'eight'
p3554
I1731
sS'preparations'
p3555
I3385
sS'cracking'
p3556
I3782
sS'hobble'
p3557
I3783
sS'lidded'
p3558
I2015
sS'fisted'
p3559
I3784
sS'segment'
p3560
I3785
sS'why'
p3561
I271
sS'ure'
p3562
I3786
sS'deny'
p3563
I3787
sS'24'
p3564
I3788
sS'refreshing'
p3565
I3789
sS'pips'
p3566
I3790
sS'wish'
p3567
I3837
sS'tramps'
p3568
I3791
sS'gather'
p3569
I1732
sS'stronger'
p3570
I867
sS'face'
p3571
I71
sS'looked'
p3572
I61
sS'gesture'
p3573
I2508
sS'heartbeats'
p3574
I2440
sS'skinny'
p3575
I1136
sS'highest'
p3576
I4044
sS'normally'
p3577
I3793
sS'logical'
p3578
I3398
sS'fact'
p3579
I3794
sS'delicately'
p3580
I3795
sS'kite'
p3581
I3796
sS'shuffle'
p3582
I3797
sS'rainbows'
p3583
I3798
sS'agreed'
p3584
I1137
sS'supported'
p3585
I3799
sS'tures'
p3586
I2374
sS'anyway'
p3587
I588
sS'rotating'
p3588
I3801
sS'bring'
p3589
I2385
sS'serving'
p3590
I3803
sS'parked'
p3591
I1734
sS'rebuke'
p3592
I3804
sS'fear'
p3593
I291
sS'gasping'
p3594
I1138
sS'pleased'
p3595
I1139
sS'"glad'
p3596
I3805
sS'jostling'
p3597
I2412
sS'nearer'
p3598
I3807
sS'wear'
p3599
I3293
sS'ha'
p3600
I1391
sS'grabbed'
p3601
I702
sS'cavort'
p3602
I3810
sS'tire'
p3603
I1352
sS'hadn'
p3604
I369
sS'clutching'
p3605
I1735
sS'('
p3606
I516
sS'madman'
p3607
I3813
sS'pickup'
p3608
I3814
sS'should'
p3609
I589
sS'surroundings'
p3610
I3815
sS'"he'
p3611
I2626
sS'tape'
p3612
I3816
sS'reorganizing'
p3613
I3817
sS'fuel'
p3614
I1736
sS'emitting'
p3615
I2462
sS'thousands'
p3616
I1958
sS'footstep'
p3617
I3820
sS'hope'
p3618
I1737
sS'meant'
p3619
I576
sS'twitched'
p3620
I2472
sS'handle'
p3621
I1369
sS'listened'
p3622
I3823
sS'means'
p3623
I1739
sS'indentations'
p3624
I3824
sS'familiar'
p3625
I868
sS'leased'
p3626
I3825
sS'lucky'
p3627
I1740
sS'accep'
p3628
I3826
sS'ones'
p3629
I590
sS'stars'
p3630
I3827
sS'words'
p3631
I321
sS'exchanges'
p3632
I3828
sS'timing'
p3633
I1670
sS'"which'
p3634
I3830
sS'poof'
p3635
I2223
sS'routine'
p3636
I3134
sS'endless'
p3637
I1741
sS'brain'
p3638
I869
sS'married'
p3639
I3833
sS'fixes'
p3640
I2545
sS'eyebrow'
p3641
I3835
sS'calling'
p3642
I772
sS'stuff'
p3643
I704
sS'she'
p3644
I24
sS'contain'
p3645
I2076
sS'mercedes'
p3646
I1743
sS'grab'
p3647
I1744
sS'fixed'
p3648
I3838
sS'turquoise'
p3649
I2232
sS'motorcycle'
p3650
I865
sS'"that'
p3651
I1746
sS'temporarily'
p3652
I3839
sS'sensuality'
p3653
I1747
sS'pants'
p3654
I3972
sS'frame'
p3655
I2582
sS'shake'
p3656
I3841
sS'shrouded'
p3657
I986
sS'obliterating'
p3658
I3135
sS'mentioned'
p3659
I3844
sS'latin'
p3660
I3845
sS'slanted'
p3661
I3846
sS'driveway'
p3662
I1748
sS'desperate'
p3663
I705
sS'racket'
p3664
I3847
sS'stack'
p3665
I3848
sS'packed'
p3666
I3849
sS'gmail'
p3667
I2815
sS'closer'
p3668
I870
sS'corpses'
p3669
I3851
sS'destiny'
p3670
I3853
sS'placed'
p3671
I3854
sS'pattern'
p3672
I1141
sS'nightmare'
p3673
I3855
sS'horribly'
p3674
I1749
sS'cruel'
p3675
I3856
sS'"think'
p3676
I3279
sS'written'
p3677
I1226
sS'unravel'
p3678
I2658
sS'closed'
p3679
I1750
sS'horrible'
p3680
I1143
sS'progress'
p3681
I1426
sS'neither'
p3682
I3861
sS'bunch'
p3683
I3862
sS'bought'
p3684
I1144
sS'ends'
p3685
I1751
sS'ability'
p3686
I3863
sS"daughters'"
p3687
I3864
sS'joy'
p3688
I3865
sS'foetus'
p3689
I1752
sS'butts'
p3690
I3866
sS'kicking'
p3691
I3867
sS'job'
p3692
I591
sS'punctured'
p3693
I3868
sS'hooks'
p3694
I3869
sS'joe'
p3695
I31
sS'jog'
p3696
I2709
sS'melds'
p3697
I3871
sS'stutters'
p3698
I2714
sS'optional'
p3699
I3873
sS'staring'
p3700
I1753
sS'praying'
p3701
I3380
sS'hits'
p3702
I517
sS'figured'
p3703
I3874
sS'"catch'
p3704
I1754
sS'feebly'
p3705
I3875
sS'site'
p3706
I3920
sS'odour'
p3707
I3876
sS'joke'
p3708
I3877
sS'taking'
p3709
I3878
sS'drug'
p3710
I2743
sS'pulp'
p3711
I3880
sS'newbies'
p3712
I3881
sS'grain'
p3713
I1019
sS'affection'
p3714
I3882
sS'tormentor'
p3715
I3883
sS'passing'
p3716
I2762
sS'journey'
p3717
I1471
sS'otherwise'
p3718
I1756
sS'comment'
p3719
I1757
sS'torn'
p3720
I769
sS'spewed'
p3721
I3886
sS'flecked'
p3722
I4052
sS'wall'
p3723
I706
sS'tuesday'
p3724
I2794
sS'sicken'
p3725
I3149
sS'walk'
p3726
I246
sS'invisible'
p3727
I3888
sS'recognized'
p3728
I4016
sS'laugh'
p3729
I371
sS'table'
p3730
I272
sS'winning'
p3731
I3889
sS'rpm'
p3732
I3890
sS'deprecating'
p3733
I3655
sS'quit'
p3734
I3892
sS'rusty'
p3735
I2537
sS'fishers'
p3736
I871
sS'thanked'
p3737
I3894
sS'copies'
p3738
I3895
sS'"just'
p3739
I1759
sS'gaze'
p3740
I801
sS'slowly'
p3741
I233
sS'fuzzy'
p3742
I3745
sS'hawking'
p3743
I2868
sS'"i\'m'
p3744
I1146
sS'compensating'
p3745
I3897
sS'curtain'
p3746
I3898
sS'waste'
p3747
I2878
sS'suggested'
p3748
I2548
sS'shoulders'
p3749
I1147
sS'senses'
p3750
I872
sS'received'
p3751
I3901
sS'painted'
p3752
I3902
sS'moved'
p3753
I436
sS'al'
p3754
I803
sS'finished'
p3755
I3903
sS'mix'
p3756
I3772
sS'sensed'
p3757
I1149
sS'watches'
p3758
I3904
sS'kicks'
p3759
I3905
sS'prescription'
p3760
I1909
sS'fellow'
p3761
I1760
sS'present'
p3762
I3907
sS'clumsily'
p3763
I3908
sS'novel'
p3764
I3909
sS'unlike'
p3765
I1761
sS'pummeling'
p3766
I3910
sS'fearful'
p3767
I1762
sS'vanilla'
p3768
I1150
sS'vicki'
p3769
I1763
sS'harder'
p3770
I707
sS'irate'
p3771
I3911
sS'choices'
p3772
I3912
sS'will'
p3773
I273
sS'politely'
p3774
I3913
sS'owns'
p3775
I3914
sS'wild'
p3776
I1151
sS'balance'
p3777
I3915
sS'supply'
p3778
I3916
sS'kimball'
p3779
I1052
sS'stuffing'
p3780
I2996
sS've'
p3781
I220
sS'ripe'
p3782
I873
sS'almost'
p3783
I133
sS'vi'
p3784
I3919
sS'ink'
p3785
I4059
sS'lush'
p3786
I1764
sS'surprisingly'
p3787
I2818
sS'surface'
p3788
I3921
sS'berates'
p3789
I3922
sS'weighed'
p3790
I1765
sS'trickled'
p3791
I2895
sS'swinging'
p3792
I3923
sS'creak'
p3793
I3924
sS'hearted'
p3794
I2464
sS'junction'
p3795
I3926
sS'sits'
p3796
I3927
sS'halt'
p3797
I2520
sS'tumbled'
p3798
I3928
sS'cawing'
p3799
I1896
sS'shooting'
p3800
I1805
sS'stooping'
p3801
I3930
sS'insight'
p3802
I3931
sS')'
p3803
I494
sS'solely'
p3804
I3288
sS'began'
p3805
I292
sS'cross'
p3806
I1766
sS'brightened'
p3807
I3933
sS'strange'
p3808
I592
sS'slammed'
p3809
I1529
sS'jaw'
p3810
I3812
sS'devastated'
p3811
I3935
sS'cream'
p3812
I1582
sS'tapped'
p3813
I3936
sS'blooms'
p3814
I3937
sS'"they'
p3815
I1768
sS'rake'
p3816
I3938
sS'infinity'
p3817
I3939
sS'drink'
p3818
I1068
sS'upon'
p3819
I1770
sS'effect'
p3820
I1153
sS'beast'
p3821
I3940
sS'sagged'
p3822
I3941
sS'dust'
p3823
I539
sS'overalls'
p3824
I3943
sS'orgy'
p3825
I2603
sS'energized'
p3826
I1989
sS'scaling'
p3827
I2527
sS'paycheck'
p3828
I2781
sS'off'
p3829
I91
sS'i'
p3830
I3
sS'groans'
p3831
I2005
sS'colour'
p3832
I1154
sS'well'
p3833
I293
sS'banging'
p3834
I3947
sS'fighting'
p3835
I3948
sS'col'
p3836
I3949
sS'thought'
p3837
I126
sS'qualified'
p3838
I3950
sS'english'
p3839
I1773
sS'tasted'
p3840
I3951
sS'tails'
p3841
I2529
sS'ified'
p3842
I3953
sS'usual'
p3843
I1560
sS'coaster'
p3844
I3955
sS'tickles'
p3845
I2494
sS'cried'
p3846
I708
sS'heavily'
p3847
I965
sS'moments'
p3848
I874
sS'emerald'
p3849
I3957
sS'dull'
p3850
I3423
sS'tance'
p3851
I2516
sS'distant'
p3852
I1156
sS'fishing'
p3853
I372
sS'rocked'
p3854
I3959
sS'seats'
p3855
I1157
sS'bohemian'
p3856
I3459
sS'happiness'
p3857
I1775
sS'flashlight'
p3858
I1158
sS'ushered'
p3859
I3961
sS'cigarette'
p3860
I3440
sS'bicycles'
p3861
I3962
sS'field'
p3862
I1776
sS'headed'
p3863
I928
sS'sky'
p3864
I1728
sS'lake'
p3865
I875
sS'bench'
p3866
I835
sS'add'
p3867
I1778
sS'other'
p3868
I215
sS'halo'
p3869
I2531
sS'wet'
p3870
I876
sS'executive'
p3871
I3977
sS'"here'
p3872
I3966
sS'match'
p3873
I2285
sS'oar'
p3874
I3968
sS'references'
p3875
I2851
sS'articles'
p3876
I3675
sS'background'
p3877
I3970
sS'fath'
p3878
I3971
sS'crushed'
p3879
I526
sS'dryer'
p3880
I3973
sS'five'
p3881
I450
sS'know'
p3882
I80
sS'knot'
p3883
I3373
sS'desk'
p3884
I221
sS'press'
p3885
I3975
sS'immediately'
p3886
I1160
sS'"but'
p3887
I877
sS'throng'
p3888
I3976
sS'loss'
p3889
I878
sS'forcing'
p3890
I2262
sS'crisp'
p3891
I1602
sS'like'
p3892
I32
sS'lost'
p3893
I883
sS'chairs'
p3894
I3403
sS'ring'
p3895
I1780
sS'perpetual'
p3896
I3982
sS'robes'
p3897
I2946
sS'garage'
p3898
I879
sS'stagger'
p3899
I1781
sS'"screw'
p3900
I3984
sS'flickering'
p3901
I3985
sS'clutch'
p3902
I3245
sS'become'
p3903
I593
sS'soft'
p3904
I247
sS'smoothness'
p3905
I3094
sS'frosty'
p3906
I3988
sS'virginity'
p3907
I3989
sS'shed'
p3908
I710
sS'because'
p3909
I150
sS'glare'
p3910
I3990
sS'wrestle'
p3911
I3806
sS'smoothly'
p3912
I3991
sS'searching'
p3913
I1161
sS'alive'
p3914
I711
sS'"did'
p3915
I3681
sS'hair'
p3916
I190
sS'growth'
p3917
I2037
sS'warmer'
p3918
I3475
sS'flush'
p3919
I3994
sS'home'
p3920
I179
sS'liking'
p3921
I1628
sS'blonde'
p3922
I2162
sS'happens'
p3923
I1783
sS'"what'
p3924
I1162
sS'notepad'
p3925
I3996
sS'lead'
p3926
I3997
sS'dunes'
p3927
I1784
sS'lauch'
p3928
I2906
sS'avoid'
p3929
I1435
sS'delaware'
p3930
I4000
sS'thank'
p3931
I1785
sS'markers'
p3932
I3519
sS'profitable'
p3933
I3383
sS'enrages'
p3934
I2120
sS'does'
p3935
I413
sS'masked'
p3936
I4003
sS'screwed'
p3937
I3537
sS'fisherman'
p3938
I4005
sS'?'
p3939
I26
sS'pasty'
p3940
I4006
sS'mimicking'
p3941
I4007
sS'noise'
p3942
I451
sS'schedule'
p3943
I1163
sS'worthless'
p3944
I3303
sS'pressure'
p3945
I594
sS'murdered'
p3946
I4009
sS'although'
p3947
I713
sS'instinct'
p3948
I3584
sS'furtive'
p3949
I4012
sS'revolution'
p3950
I3268
sS'sister'
p3951
I1120
sS'rare'
p3952
I4014
sS'carried'
p3953
I880
sS'getting'
p3954
I578
sS'universe'
p3955
I1788
sS'urged'
p3956
I3502
sS'seeds'
p3957
I1789
sS'blackness'
p3958
I580
sS'fleshy'
p3959
I1124
sS'tongue'
p3960
I452
sS'perish'
p3961
I3706
sS'owl'
p3962
I4018
sS'equally'
p3963
I1790
sS'own'
p3964
I322
sS'letters'
p3965
I3661
sS'blindly'
p3966
I3220
sS'billions'
p3967
I4020
sS'screamed'
p3968
I714
sS'weather'
p3969
I1791
sS'promise'
p3970
I1792
sS'tiny'
p3971
I519
sS'female'
p3972
I4021
sS'secretive'
p3973
I4022
sS'roads'
p3974
I4023
sS'ketchup'
p3975
I4024
sS'dug'
p3976
I3306
sS'pointless'
p3977
I4025
sS'mere'
p3978
I1793
sS'yanked'
p3979
I4026
sS'utility'
p3980
I3704
sS'urinal'
p3981
I3155
sS'exciting'
p3982
I2835
sS'rushed'
p3983
I1164
sS'outline'
p3984
I2503
sS'spiral'
p3985
I4029
sS'"accident'
p3986
I4030
sS'board'
p3987
I2231
sS'much'
p3988
I238
sS'husk'
p3989
I3992
sS'biggest'
p3990
I3742
sS'squeal'
p3991
I2773
sS'swerved'
p3992
I4034
sS'uncontrollable'
p3993
I4035
sS'naturally'
p3994
I4036
sS'buy'
p3995
I715
sS'north'
p3996
I4037
sS'chatting'
p3997
I4038
sS'ambiance'
p3998
I4039
sS'miraculously'
p3999
I4040
sS'but'
p4000
I25
sS'volume'
p4001
I4041
sS'reminds'
p4002
I1795
sS'hi'
p4003
I1796
sS'mailed'
p4004
I4042
sS'grate'
p4005
I4043
sS'ear'
p4006
I1306
sS'eat'
p4007
I716
sS'he'
p4008
I9
sS'count'
p4009
I3821
sS'made'
p4010
I111
sS'tossed'
p4011
I1797
sS'beds'
p4012
I2318
sS'places'
p4013
I1798
sS'comfort'
p4014
I3811
sS'dangerous'
p4015
I1799
sS'smooth'
p4016
I1800
sS'excitement'
p4017
I884
sS'record'
p4018
I1622
sS'below'
p4019
I1801
sS'decays'
p4020
I1817
sS'onwards'
p4021
I2993
sS'woke'
p4022
I1803
sS'gagged'
p4023
I1804
sS'infants'
p4024
I4049
sS'picks'
p4025
I4050
sS'problem'
p4026
I717
sS'piece'
p4027
I1165
sS'minutes'
p4028
I323
sS'display'
p4029
I4051
sS'block'
p4030
I3065
sS'acids'
p4031
I4053
sS'mask'
p4032
I4054
sS'pic'
p4033
I1906
sS'pie'
p4034
I718
sS'slowing'
p4035
I4056
sS'twist'
p4036
I1166
sS'beats'
p4037
I4057
sS'resented'
p4038
I4058
sS'slumped'
p4039
I3445
sS'flight'
p4040
I4060
sS'ing'
p4041
I647
sS'pit'
p4042
I3932
sS'happen'
p4043
I4062
sS'deeper'
p4044
I4063
sS'placation'
p4045
I4064
sS'avoided'
p4046
I4065
sS"'ll"
p4047
I453
sS'variety'
p4048
I1155
sS'dressed'
p4049
I1807
sS'silenced'
p4050
I3316
sS'oak'
p4051
I1808
sS'forests'
p4052
I1809
sS'lately'
p4053
I4067
sS'book'
p4054
I885
sS'details'
p4055
I1810
sS'sick'
p4056
I454
sS'suppress'
p4057
I4068
sS'suspiciously'
p4058
I1811
sS'er'
p4059
I1812
sS'illusion'
p4060
I4069
sS'reckless'
p4061
I4070
sS'conclusion'
p4062
I4071
sS'junk'
p4063
I4072
sS'kinds'
p4064
I4073
sS'monday'
p4065
I4074
sS'traumatic'
p4066
I4075
sS'shredded'
p4067
I4076
sS'footprints'
p4068
I1167
sS'stay'
p4069
I886
sS'chance'
p4070
I720
sS'longing'
p4071
I2764
sS'wrenching'
p4072
I4077
sS'basement'
p4073
I1566
sS'gap'
p4074
I1376
sS'friends'
p4075
I887
sS'vein'
p4076
I4079
sS'upwards'
p4077
I721
sS'ghost'
p4078
I4080
sS'coat'
p4079
I493
sS'coupling'
p4080
I4081
sS'rotting'
p4081
I1168
sS'starting'
p4082
I4082
sS'profound'
p4083
I4083
sS'lasted'
p4084
I4084
sS'hiker'
p4085
I4085
sS'amputated'
p4086
I2488
sS'weekenders'
p4087
I1518
sS'yell'
p4088
I4088
sS'"the'
p4089
I722
sS'baked'
p4090
I2678
sS'gardens'
p4091
I4089
sa(lp4092
g2252
ag751
ag268
ag3830
ag1475
ag2071
ag1894
ag2276
ag1617
ag4008
ag176
ag704
ag903
ag1441
ag2597
ag769
ag1985
ag1988
ag1035
ag829
ag1888
ag1926
ag1956
ag2615
ag3644
ag4000
ag3939
ag2008
ag574
ag695
ag2457
ag3695
ag3892
ag2921
ag3226
ag3528
ag136
ag3005
ag3416
ag2895
ag1640
ag2959
ag291
ag2922
ag1930
ag3261
ag961
ag647
ag2126
ag1259
ag1316
ag280
ag2045
ag1770
ag1470
ag707
ag1907
ag3246
ag279
ag1411
ag2894
ag3572
ag1190
ag1980
ag1437
ag2640
ag177
ag1818
ag1004
ag2313
ag755
ag3571
ag978
ag1196
ag1317
ag2642
ag524
ag1055
ag881
ag1707
ag3882
ag3456
ag394
ag567
ag900
ag1248
ag215
ag589
ag97
ag908
ag1493
ag3829
ag252
ag419
ag1995
ag882
ag3367
ag3475
ag259
ag337
ag1572
ag2307
ag1285
ag2188
ag2753
ag622
ag1983
ag3286
ag578
ag1158
ag2243
ag4010
ag2938
ag3551
ag3095
ag3158
ag3378
ag1594
ag2197
ag3377
ag72
ag95
ag202
ag1403
ag1700
ag2193
ag3837
ag189
ag312
ag846
ag3032
ag3232
ag3243
ag3783
ag1469
ag1212
ag1327
ag1412
ag346
ag469
ag752
ag815
ag236
ag2553
ag216
ag478
ag982
ag1511
ag2173
ag2268
ag3909
ag632
ag1284
ag1417
ag1455
ag2440
ag2873
ag677
ag687
ag811
ag1360
ag1563
ag1697
ag3379
ag310
ag675
ag198
ag1802
ag2009
ag197
ag395
ag491
ag1483
ag1494
ag1503
ag1698
ag1741
ag3092
ag3430
ag3920
ag89
ag413
ag712
ag1348
ag1559
ag1902
ag2127
ag2482
ag2804
ag3069
ag3916
ag36
ag85
ag230
ag731
ag2014
ag1603
ag1974
ag2083
ag2354
ag2580
ag1203
ag165
ag1394
ag354
ag404
ag464
ag3021
ag646
ag659
ag1016
ag1027
ag1243
ag1396
ag1620
ag3868
ag2444
ag2683
ag3188
ag3316
ag3781
ag3884
ag333
ag2130
ag713
ag812
ag929
ag1433
ag1725
ag2104
ag2150
ag2645
ag3541
ag3741
ag88
ag140
ag361
ag617
ag3988
ag836
ag1066
ag1512
ag1922
ag1982
ag3014
ag3176
ag3726
ag3904
ag931
ag440
ag1078
ag1562
ag1632
ag1635
ag1755
ag1829
ag1908
ag2079
ag2122
ag2362
ag2375
ag2524
ag2547
ag2761
ag2803
ag2863
ag2900
ag2991
ag3006
ag3359
ag3529
ag3561
ag3730
ag3773
ag96
ag192
ag244
ag379
ag494
ag918
ag1323
ag1488
ag1098
ag2373
ag2076
ag2101
ag2360
ag2497
ag3055
ag3078
ag3231
ag3593
ag3805
ag3833
ag61
ag311
ag434
ag459
ag763
ag807
ag1185
ag145
ag1000
ag1030
ag1106
ag1255
ag1265
ag1427
ag1496
ag1616
ag1746
ag1804
ag1868
ag2099
ag2297
ag2329
ag2599
ag2941
ag483
ag3134
ag3208
ag3631
ag3964
ag4028
ag2798
ag428
ag722
ag1510
ag973
ag1415
ag1458
ag1758
ag1970
ag2248
ag2464
ag2475
ag2631
ag2715
ag2983
ag3329
ag3468
ag2285
ag1777
ag366
ag378
ag455
ag505
ag527
ag818
ag972
ag168
ag1315
ag1422
ag1588
ag1674
ag1905
ag2097
ag2304
ag2358
ag2390
ag2845
ag2569
ag2604
ag2646
ag2681
ag3168
ag3195
ag3223
ag3330
ag3604
ag1292
ag3729
ag3853
ag22
ag156
ag157
ag171
ag179
ag441
ag490
ag548
ag848
ag873
ag142
ag992
ag1116
ag1118
ag1279
ag2263
ag1373
ag1435
ag1541
ag1613
ag1560
ag1720
ag2534
ag1787
ag1790
ag2811
ag1935
ag2117
ag2175
ag2259
ag2560
ag2561
ag2660
ag2698
ag2703
ag2740
ag2979
ag3115
ag3350
ag3503
ag3935
ag8
ag68
ag2082
ag370
ag1900
ag598
ag643
ag648
ag799
ag920
ag2903
ag986
ag1018
ag1060
ag175
ag1313
ag1332
ag1354
ag239
ag1551
ag696
ag1820
ag3753
ag1702
ag2128
ag2236
ag2246
ag2302
ag2493
ag348
ag2696
ag2819
ag2955
ag2992
ag3125
ag3284
ag3881
ag3942
ag3960
ag4047
ag4056
ag10
ag23
ag423
ag143
ag183
ag2081
ag220
ag432
ag435
ag437
ag453
ag549
ag658
ag670
ag1650
ag953
ag1068
ag1099
ag1117
ag1142
ag1216
ag1294
ag1318
ag1534
ag1542
ag1564
ag1653
ag1673
ag1788
ag1795
ag1252
ag1874
ag1880
ag1939
ag1955
ag2144
ag2152
ag2183
ag4079
ag3803
ag2324
ag1750
ag2543
ag2544
ag2638
ag2649
ag2721
ag2763
ag2774
ag2836
ag2855
ag2975
ag3023
ag3060
ag3224
ag3391
ag3396
ag3407
ag3437
ag3491
ag1197
ag3606
ag3702
ag218
ag3971
ag83
ag2333
ag249
ag270
ag314
ag347
ag3879
ag529
ag534
ag541
ag573
ag600
ag2843
ag630
ag758
ag759
ag866
ag868
ag998
ag3823
ag1029
ag1132
ag1168
ag1211
ag1246
ag1251
ag1402
ag1544
ag1548
ag1361
ag1605
ag1611
ag1663
ag1681
ag1806
ag1893
ag2374
ag1958
ag1990
ag1803
ag2414
ag2170
ag2270
ag2278
ag2322
ag2336
ag2489
ag2499
ag2541
ag2623
ag2785
ag2899
ag2904
ag1083
ag1852
ag3075
ag3619
ag3141
ag3954
ag3305
ag3958
ag3411
ag3431
ag3451
ag3453
ag3487
ag3509
ag128
ag3587
ag3609
ag3629
ag3692
ag3808
ag3903
ag3945
ag43
ag81
ag119
ag138
ag162
ag1938
ag273
ag287
ag387
ag392
ag2825
ag523
ag595
ag606
ag636
ag639
ag107
ag671
ag2540
ag749
ag2171
ag777
ag850
ag924
ag952
ag150
ag155
ag996
ag1063
ag1081
ag2924
ag1112
ag1115
ag1134
ag1213
ag1219
ag1237
ag1276
ag1299
ag1342
ag1385
ag1388
ag1416
ag1420
ag1448
ag1491
ag1519
ag1543
ag1553
ag1604
ag1612
ag1637
ag4041
ag3164
ag1712
ag1723
ag1775
ag1807
ag1950
ag1960
ag2004
ag195
ag2158
ag2216
ag2239
ag2301
ag2310
ag2370
ag1940
ag2377
ag2415
ag2416
ag2468
ag2473
ag2498
ag2529
ag2564
ag2579
ag2584
ag2587
ag412
ag2708
ag2733
ag2743
ag2765
ag2771
ag1826
ag1834
ag3211
ag2876
ag2889
ag2954
ag3003
ag3066
ag2033
ag3131
ag1199
ag518
ag3270
ag3299
ag2925
ag3392
ag3398
ag223
ag3458
ag3484
ag3499
ag3601
ag3346
ag3643
ag3663
ag3723
ag3770
ag3846
ag2190
ag3908
ag3914
ag3328
ag3947
ag3968
ag3995
ag4007
ag4026
ag4034
ag2281
ag4070
ag4077
ag4089
ag7
ag2693
ag106
ag793
ag135
ag163
ag194
ag206
ag221
ag265
ag305
ag308
ag313
ag376
ag422
ag471
ag553
ag580
ag594
ag596
ag608
ag638
ag654
ag669
ag694
ag724
ag3238
ag738
ag739
ag741
ag774
ag792
ag813
ag1200
ag888
ag907
ag817
ag2230
ag994
ag1008
ag166
ag1084
ag1087
ag1155
ag1162
ag1236
ag3720
ag1296
ag1322
ag3642
ag1364
ag71
ag1423
ag1430
ag1480
ag1514
ag1557
ag1578
ag1641
ag1657
ag1669
ag1684
ag945
ag1711
ag2261
ag1734
ag1748
ag2432
ag959
ag1793
ag1830
ag1845
ag1879
ag1883
ag1887
ag1889
ag1913
ag1925
ag3740
ag1280
ag3754
ag2382
ag327
ag2066
ag2084
ag2089
ag2121
ag488
ag2153
ag2207
ag2283
ag2291
ag2293
ag2306
ag2308
ag2334
ag2343
ag2344
ag2367
ag2410
ag2447
ag2456
ag2503
ag1773
ag2537
ag2576
ag2578
ag2593
ag2598
ag2666
ag2672
ag2674
ag3866
ag2732
ag1816
ag2815
ag614
ag2853
ag2858
ag1848
ag2967
ag2969
ag2994
ag3015
ag3046
ag3088
ag3102
ag899
ag3114
ag3151
ag3162
ag3178
ag3190
ag3204
ag1857
ag3244
ag3288
ag3297
ag1228
ag3402
ag3439
ag3482
ag3650
ag3536
ag3570
ag3625
ag3638
ag3668
ag3736
ag3750
ag3782
ag3848
ag3865
ag3870
ag3887
ag3889
ag3898
ag3953
ag3309
ag241
ag3893
ag4017
ag4054
ag4069
ag4075
ag13
ag46
ag1371
ag73
ag680
ag111
ag112
ag118
ag3443
ag990
ag190
ag1627
ag213
ag257
ag269
ag281
ag298
ag332
ag344
ag359
ag381
ag2111
ag396
ag2115
ag416
ag69
ag427
ag445
ag456
ag489
ag492
ag496
ag79
ag77
ag510
ag514
ag515
ag528
ag544
ag555
ag3863
ag571
ag582
ag588
ag633
ag657
ag660
ag673
ag714
ag261
ag729
ag761
ag776
ag788
ag790
ag791
ag806
ag825
ag834
ag844
ag863
ag876
ag1397
ag898
ag911
ag2898
ag1536
ag949
ag954
ag962
ag970
ag1005
ag1028
ag167
ag1052
ag1064
ag2612
ag3847
ag1124
ag1133
ag1135
ag1153
ag1159
ag1506
ag2758
ag862
ag1204
ag2240
ag1235
ag1250
ag1253
ag1262
ag1264
ag1268
ag1272
ag1286
ag1290
ag1304
ag3657
ag1335
ag1346
ag1347
ag1352
ag1590
ag1376
ag1404
ag2977
ag1424
ag1425
ag1428
ag1431
ag1432
ag1450
ag1453
ag1461
ag1504
ag1526
ag1547
ag1570
ag1589
ag1619
ag1638
ag1642
ag1646
ag1647
ag1656
ag1690
ag1692
ag275
ag1717
ag1744
ag3713
ag1753
ag1780
ag1800
ag1805
ag1811
ag1814
ag1839
ag1840
ag1849
ag3043
ag3197
ag1858
ag1859
ag1863
ag1864
ag1927
ag3058
ag2381
ag2012
ag2021
ag2022
ag2032
ag3077
ag2050
ag2052
ag2058
ag2063
ag651
ag2094
ag2106
ag384
ag2131
ag3779
ag2212
ag2221
ag2165
ag2226
ag2244
ag1732
ag2262
ag2287
ag2309
ag2321
ag1047
ag2331
ag2341
ag2365
ag2399
ag3818
ag2407
ag1759
ag2433
ag2461
ag2467
ag2506
ag2550
ag2555
ag2559
ag2572
ag2613
ag2617
ag2619
ag2658
ag2673
ag2685
ag2691
ag2701
ag2734
ag2736
ag2749
ag2755
ag2756
ag2757
ag2769
ag2806
ag2530
ag1706
ag2891
ag2905
ag2908
ag3221
ag2940
ag2960
ag2987
ag2988
ag3209
ag3008
ag3016
ag3024
ag1072
ag3033
ag3050
ag3052
ag2523
ag3104
ag3123
ag3146
ag3150
ag3229
ag3240
ag3951
ag3255
ag3274
ag3276
ag3959
ag2143
ag3363
ag3408
ag141
ag3445
ag3449
ag3502
ag3504
ag3505
ag2650
ag2653
ag3575
ag3584
ag3594
ag3595
ag581
ag3672
ag1372
ag3680
ag3684
ag1936
ag3744
ag3749
ag1981
ag3757
ag3768
ag3776
ag1989
ag3820
ag3832
ag4048
ag3852
ag3855
ag3858
ag1595
ag3886
ag3913
ag3924
ag3943
ag3983
ag4027
ag4036
ag4068
ag4081
ag9
ag11
ag2404
ag18
ag19
ag31
ag52
ag53
ag57
ag58
ag66
ag137
ag2060
ag87
ag93
ag100
ag103
ag104
ag2035
ag108
ag1377
ag122
ag1207
ag3497
ag133
ag2442
ag147
ag159
ag172
ag937
ag186
ag212
ag227
ag2786
ag229
ag233
ag1401
ag1518
ag242
ag245
ag1554
ag41
ag254
ag715
ag1696
ag276
ag718
ag285
ag317
ag322
ag323
ag326
ag2048
ag330
ag331
ag338
ag340
ag3677
ag358
ag1484
ag363
ag367
ag375
ag380
ag389
ag2522
ag408
ag418
ag424
ag429
ag442
ag444
ag448
ag2712
ag454
ag476
ag493
ag497
ag499
ag502
ag503
ag508
ag509
ag519
ag1088
ag84
ag535
ag542
ag2494
ag547
ag554
ag557
ag563
ag564
ag575
ag576
ag577
ag590
ag603
ag604
ag607
ag619
ag621
ag627
ag3521
ag650
ag652
ag661
ag1486
ag676
ag683
ag685
ag691
ag698
ag711
ag2864
ag730
ag736
ag737
ag740
ag742
ag120
ag748
ag753
ag770
ag771
ag773
ag775
ag779
ag235
ag796
ag129
ag800
ag801
ag805
ag816
ag828
ag4006
ag838
ag845
ag854
ag855
ag857
ag860
ag869
ag870
ag880
ag886
ag889
ag896
ag897
ag905
ag910
ag1529
ag916
ag927
ag933
ag943
ag963
ag969
ag981
ag999
ag1012
ag1013
ag401
ag1019
ag161
ag1223
ag1022
ag1025
ag1026
ag1046
ag842
ag1056
ag1058
ag1070
ag1079
ag2405
ag1096
ag1555
ag1108
ag1111
ag1114
ag3603
ag1122
ag1130
ag1137
ag1149
ag3253
ag1165
ag329
ag1172
ag1178
ag858
ag2533
ag1187
ag1191
ag1192
ag1198
ag1215
ag3621
ag2241
ag1222
ag2956
ag1224
ag1244
ag1247
ag4074
ag1260
ag1269
ag1283
ag1289
ag203
ag1722
ag1298
ag1311
ag1326
ag3508
ag1331
ag1339
ag1341
ag1343
ag3600
ag1353
ag1576
ag1362
ag1369
ag1370
ag1210
ag1381
ag210
ag1407
ag1413
ag2271
ag1418
ag1421
ag1567
ag1426
ag1429
ag1454
ag1460
ag1462
ag1463
ag1472
ag1481
ag909
ag1498
ag1500
ag1501
ag1505
ag913
ag1531
ag1533
ag1550
ag2686
ag1569
ag1574
ag3681
ag1585
ag1592
ag1593
ag1608
ag1614
ag260
ag1624
ag1631
ag3929
ag1639
ag1654
ag1670
ag1676
ag272
ag1682
ag1687
ag1703
ag1704
ag1708
ag1710
ag1715
ag1716
ag1719
ag2209
ag1730
ag1733
ag3028
ag1739
ag1740
ag1751
ag452
ag1785
ag1797
ag1812
ag2768
ag1828
ag1846
ag1847
ag307
ag3019
ag1860
ag1862
ag1871
ag1899
ag3717
ag1903
ag1904
ag1941
ag1961
ag1973
ag1986
ag1994
ag2000
ag2010
ag2013
ag2026
ag2027
ag2028
ag2029
ag2038
ag2040
ag2043
ag2047
ag2055
ag2064
ag2340
ag1177
ag2074
ag2088
ag2109
ag2112
ag278
ag2120
ag2129
ag2132
ag2140
ag2141
ag616
ag2147
ag2161
ag350
ag2180
ag2187
ag355
ag2195
ag2198
ag2200
ag2424
ag2205
ag2210
ag2220
ag4087
ag2225
ag1221
ag2249
ag2251
ag2258
ag2266
ag2274
ag2290
ag3547
ag2317
ag3809
ag2347
ag2453
ag2406
ag2412
ag2413
ag2423
ag2428
ag2436
ag2345
ag2441
ag2448
ag1762
ag2452
ag2458
ag2434
ag2479
ag2483
ag2485
ag2562
ag2492
ag2517
ag2518
ag2796
ag2525
ag2528
ag2531
ag2535
ag2546
ag3372
ag2563
ag3843
ag1350
ag2582
ag826
ag2608
ag2611
ag4073
ag2085
ag2618
ag2634
ag2641
ag2847
ag2656
ag2078
ag2663
ag3183
ag2668
ag2690
ag824
ag2694
ag2695
ag2697
ag3812
ag2719
ag2720
ag2729
ag2738
ag318
ag1121
ag2762
ag2777
ag2521
ag2795
ag315
ag320
ag1881
ag2810
ag2812
ag2831
ag2846
ag2848
ag2857
ag3891
ag2868
ag2874
ag2875
ag2883
ag3217
ag1147
ag2902
ag2915
ag2920
ag1092
ag2930
ag2936
ag3543
ag2946
ag2953
ag2957
ag1160
ag2968
ag2978
ag4018
ag2996
ag2859
ag3011
ag3020
ag3027
ag3921
ag3041
ag3535
ag3044
ag3051
ag3056
ag3062
ag3068
ag3071
ag1630
ag3080
ag3085
ag3090
ag3093
ag3100
ag3103
ag3111
ag3124
ag3385
ag3132
ag3140
ag3152
ag3156
ag2339
ag3166
ag3171
ag3266
ag3175
ag3177
ag3180
ag3182
ag2667
ag3185
ag3189
ag3205
ag3207
ag3210
ag2860
ag3225
ag2245
ag3233
ag3235
ag3633
ag3236
ag3237
ag3249
ag3251
ag3252
ag3254
ag3258
ag3262
ag3267
ag3269
ag3277
ag734
ag3281
ag3285
ag3287
ag3332
ag3293
ag3295
ag3302
ag3308
ag2350
ag3318
ag3326
ag3327
ag3331
ag853
ag3342
ag1226
ag3356
ag2369
ag3365
ag3369
ag3374
ag3376
ag2759
ag1917
ag3401
ag3405
ag3413
ag3418
ag3315
ag3428
ag3438
ag3196
ag3452
ag1240
ag3462
ag3469
ag2661
ag3479
ag3488
ag3489
ag3490
ag3506
ag3515
ag3522
ag3525
ag3864
ag3531
ag808
ag3554
ag3569
ag1266
ag3591
ag3605
ag3614
ag3618
ag2670
ag3623
ag3627
ag3637
ag1349
ag3646
ag3647
ag1400
ag3651
ag3653
ag3662
ag3674
ag3679
ag3685
ag3689
ag3700
ag3704
ag778
ag3718
ag3719
ag3199
ag3739
ag3761
ag3765
ag3767
ag3769
ag3786
ag3790
ag3806
ag2351
ag3815
ag620
ag3819
ag967
ag1310
ag3839
ag201
ag3857
ag3862
ag975
ag3867
ag1319
ag3895
ag3899
ag3029
ag3923
ag3927
ag3931
ag364
ag3395
ag3955
ag3957
ag3963
ag3969
ag3970
ag3978
ag893
ag4002
ag4003
ag4011
ag4013
ag4015
ag4016
ag4019
ag1345
ag4022
ag4023
ag3800
ag3121
ag4049
ag4051
ag4052
ag4055
ag4058
ag4059
ag60
ag3425
ag2
ag4
ag4020
ag5
ag6
ag12
ag1954
ag15
ag16
ag635
ag17
ag2747
ag20
ag21
ag24
ag25
ag26
ag27
ag29
ag30
ag2020
ag33
ag2750
ag38
ag39
ag40
ag3086
ag2053
ag44
ag2754
ag47
ag1234
ag48
ag49
ag50
ag51
ag54
ag55
ag56
ag59
ag63
ag64
ag65
ag2320
ag67
ag70
ag74
ag75
ag76
ag2962
ag78
ag80
ag82
ag526
ag86
ag2778
ag90
ag91
ag92
ag1043
ag98
ag99
ag211
ag102
ag105
ag2380
ag109
ag1398
ag110
ag113
ag115
ag743
ag121
ag124
ag125
ag126
ag798
ag130
ag131
ag132
ag134
ag3799
ag3537
ag139
ag902
ag144
ag146
ag325
ag149
ag957
ag152
ag4033
ag154
ag697
ag3760
ag3447
ag1020
ag164
ag3550
ag2942
ag169
ag170
ag173
ag174
ag1102
ag178
ag180
ag181
ag182
ag184
ag185
ag187
ag191
ag193
ag240
ag199
ag200
ag1419
ag1293
ag204
ag207
ag3045
ag209
ag3054
ag214
ag709
ag219
ag222
ag224
ag225
ag941
ag231
ag232
ag2087
ag237
ag238
ag1851
ag1509
ag243
ag246
ag3459
ag251
ag255
ag3616
ag3460
ag256
ag258
ag1623
ag262
ag264
ag266
ag267
ag271
ag1680
ag274
ag277
ag282
ag284
ag923
ag286
ag288
ag289
ag3463
ag1786
ag293
ag294
ag295
ag296
ag299
ag300
ag301
ag302
ag303
ag304
ag3826
ag3361
ag306
ag723
ag1866
ag309
ag725
ag316
ag319
ag321
ag324
ag1524
ag2039
ag328
ag334
ag2102
ag3831
ag339
ag341
ag342
ag343
ag3290
ag2168
ag351
ag2191
ag356
ag3558
ag360
ag362
ag2548
ag365
ag368
ag2107
ag371
ag373
ag374
ag377
ag382
ag383
ag2842
ag388
ag390
ag391
ag2049
ag3381
ag398
ag399
ag400
ag3917
ag2114
ag3478
ag403
ag407
ag409
ag410
ag2596
ag414
ag415
ag417
ag420
ag421
ag425
ag426
ag430
ag431
ag1436
ag433
ag436
ag438
ag439
ag1459
ag446
ag447
ag2817
ag450
ag451
ag1356
ag458
ag460
ag461
ag2820
ag465
ag1444
ag467
ag468
ag470
ag472
ag3645
ag474
ag475
ag477
ag479
ag481
ag482
ag484
ag485
ag487
ag504
ag506
ag507
ag2830
ag511
ag512
ag1992
ag513
ag516
ag517
ag2265
ag2997
ag520
ag522
ag525
ag2966
ag530
ag531
ag532
ag533
ag536
ag537
ag538
ag540
ag543
ag545
ag2834
ag550
ag551
ag552
ag556
ag558
ag559
ag560
ag3934
ag562
ag565
ag566
ag568
ag569
ag570
ag572
ag579
ag1467
ag583
ag926
ag584
ag1929
ag585
ag587
ag591
ag3513
ag593
ag599
ag1471
ag602
ag605
ag609
ag610
ag611
ag612
ag613
ag767
ag2151
ag3213
ag618
ag1031
ag1287
ag114
ag623
ag624
ag625
ag628
ag629
ag631
ag634
ag3922
ag637
ag640
ag642
ag644
ag645
ag649
ag653
ag656
ag662
ag664
ag3523
ag1485
ag668
ag2760
ag674
ag772
ag678
ag679
ag2051
ag681
ag682
ag686
ag688
ag689
ag690
ag692
ag693
ag158
ag699
ag700
ag701
ag702
ag703
ag705
ag706
ag708
ag217
ag710
ag3357
ag717
ag1552
ag719
ag720
ag721
ag101
ag726
ag3532
ag728
ag732
ag733
ag2510
ag735
ag2431
ag944
ag744
ag745
ag746
ag2167
ag747
ag750
ag3635
ag754
ag1499
ag760
ag762
ag764
ag3538
ag768
ag3987
ag3649
ag780
ag781
ag782
ag127
ag783
ag784
ag785
ag786
ag787
ag789
ag797
ag802
ag803
ag804
ag1766
ag1301
ag809
ag810
ag814
ag819
ag820
ag822
ag823
ag1607
ag827
ag830
ag831
ag832
ag833
ag3890
ag835
ag837
ag839
ag840
ag841
ag349
ag843
ag1080
ag847
ag849
ag852
ag1131
ag856
ag859
ag2884
ag864
ag865
ag867
ag871
ag872
ag3107
ag1151
ag3873
ag875
ag877
ag878
ag879
ag883
ag884
ag885
ag887
ag890
ag891
ag892
ag894
ag1406
ag895
ag2471
ag901
ag906
ag1497
ag915
ag917
ag919
ag922
ag3387
ag925
ag928
ag1532
ag930
ag932
ag934
ag935
ag936
ag938
ag4012
ag35
ag1693
ag946
ag947
ag948
ag950
ag951
ag2445
ag955
ag956
ag958
ag960
ag151
ag964
ag965
ag966
ag1810
ag968
ag971
ag974
ag976
ag977
ag979
ag1979
ag984
ag985
ag987
ag988
ag989
ag991
ag1867
ag993
ag995
ag997
ag2849
ag1002
ag1003
ag1006
ag1007
ag1409
ag1009
ag1010
ag1011
ag1014
ag1015
ag1017
ag1021
ag1023
ag1024
ag1449
ag1032
ag1033
ag1034
ag1036
ag1037
ag3586
ag1039
ag1040
ag1041
ag1042
ag1075
ag1044
ag1546
ag1049
ag1050
ag1053
ag3589
ag1057
ag1059
ag1061
ag1062
ag1067
ag1069
ag1071
ag2446
ag1073
ag1074
ag2469
ag1077
ag1082
ag1085
ag1086
ag2565
ag1089
ag1090
ag1091
ag716
ag1094
ag1095
ag1375
ag1097
ag1912
ag1100
ag3597
ag1101
ag1103
ag1105
ag2223
ag1109
ag1110
ag1113
ag1119
ag1120
ag2885
ag1123
ag1125
ag1127
ag1128
ag1129
ag457
ag1138
ag1139
ag1140
ag1141
ag1143
ag1144
ag1145
ag1146
ag2893
ag1148
ag1150
ag3574
ag1152
ag1154
ag1156
ag1157
ag1161
ag1163
ag2364
ag1164
ag1166
ag1167
ag1169
ag1170
ag1171
ag1173
ag1174
ag1175
ag160
ag1176
ag672
ag2068
ag1179
ag3615
ag1181
ag3794
ag1183
ag1184
ag1186
ag1188
ag1189
ag561
ag1194
ag3620
ag3153
ag2023
ag1201
ag2238
ag2395
ag1205
ag1206
ag3227
ag3148
ag3248
ag1214
ag1220
ag1225
ag3344
ag1227
ag4086
ag1229
ag1230
ag1232
ag1233
ag1586
ag3845
ag1195
ag1238
ag1239
ag3454
ag1241
ag2357
ag1245
ag1249
ag3984
ag1254
ag1256
ag1257
ag1263
ag3573
ag1267
ag1271
ag1273
ag1275
ag1281
ag1282
ag1288
ag3851
ag1919
ag1297
ag1300
ag3797
ag1302
ag1303
ag1305
ag1306
ag1307
ag1309
ag3827
ag1312
ag3841
ag1314
ag3869
ag1644
ag1320
ag1321
ag1324
ag1325
ag3735
ag1328
ag1329
ag1330
ag1334
ag1337
ag1338
ag1340
ag3640
ag1344
ag1850
ag3748
ag1351
ag1355
ag1357
ag1358
ag1359
ag1363
ag1365
ag1366
ag1367
ag1368
ag1374
ag94
ag2951
ag2970
ag1379
ag1380
ag1382
ag1383
ag1384
ag1386
ag1387
ag1390
ag3500
ag1392
ag1393
ag1886
ag2911
ag1399
ag1405
ag1408
ag2887
ag1410
ag336
ag3655
ag2346
ag2626
ag1438
ag1439
ag1440
ag2527
ag1442
ag1527
ag1443
ag226
ag1445
ag1446
ag1447
ag1451
ag1452
ag1457
ag1655
ag2280
ag1465
ag1466
ag3825
ag1468
ag586
ag597
ag601
ag1473
ag1474
ag1476
ag1477
ag1478
ag1479
ag665
ag667
ag2971
ag1487
ag1489
ag1490
ag1492
ag1495
ag1606
ag2735
ag757
ag1502
ag3611
ag1507
ag1508
ag2813
ag1513
ag1515
ag1517
ag3263
ag1521
ag1523
ag2989
ag1525
ag32
ag1528
ag1948
ag1530
ag3476
ag904
ag1535
ag1093
ag1537
ag1538
ag1539
ag1540
ag1545
ag1045
ag1549
ag2744
ag1896
ag1558
ag2299
ag1565
ag3678
ag942
ag2998
ag1568
ag1571
ag253
ag1573
ag1575
ag2711
ag1577
ag1580
ag1581
ag1582
ag1583
ag1584
ag1336
ag2551
ag1587
ag1591
ag1727
ag4090
ag1126
ag1598
ag1599
ag1600
ag1601
ag1602
ag3368
ag1996
ag1609
ag1610
ag3097
ag1615
ag3009
ag1618
ag1621
ag1622
ag2316
ag1628
ag1629
ag1689
ag1667
ag1633
ag1634
ag1051
ag1636
ag1757
ag1645
ag1648
ag1649
ag2349
ag3696
ag1837
ag1658
ag1659
ag1661
ag3698
ag1664
ag1665
ag1666
ag1668
ag1671
ag1672
ag1675
ag1677
ag1678
ag1679
ag1683
ag1685
ag1686
ag1688
ag1691
ag3423
ag1694
ag1695
ag1699
ag1701
ag2100
ag2116
ag1709
ag1713
ag1714
ag1718
ag1721
ag1724
ag3710
ag3485
ag1728
ag1729
ag1731
ag1736
ag1738
ag1742
ag1743
ag1747
ag1749
ag2366
ag1752
ag2095
ag1754
ag1756
ag921
ag1760
ag2450
ag3716
ag1765
ag4071
ag1767
ag1768
ag1769
ag1832
ag1771
ag1772
ag1774
ag1776
ag3991
ag1778
ag1779
ag1781
ag1782
ag1783
ag1784
ag1789
ag3828
ag1791
ag1792
ag1794
ag1796
ag1798
ag1799
ag1801
ag2330
ag1808
ag1809
ag397
ag1813
ag3724
ag1819
ag1821
ag1824
ag1825
ag1831
ag393
ag1833
ag2854
ag1835
ag1897
ag1838
ag1841
ag1842
ag1843
ag1844
ag2934
ag2549
ag1853
ag1854
ag1855
ag3667
ag1856
ag1861
ag3787
ag666
ag1865
ag3087
ag3091
ag1869
ag1870
ag1872
ag1873
ag1875
ag1876
ag1877
ag1878
ag3172
ag1882
ag1884
ag1885
ag3982
ag1890
ag1892
ag1895
ag3280
ag1048
ag1898
ag1901
ag1906
ag2042
ag1909
ag1910
ag1911
ag1914
ag1915
ag1916
ag3875
ag1918
ag3404
ag1920
ag1921
ag1923
ag1924
ag3061
ag1928
ag3455
ag1931
ag1932
ag2718
ag1937
ag2312
ag1943
ag1944
ag3743
ag1946
ag1947
ag3548
ag1949
ag1952
ag1953
ag3212
ag1957
ag1959
ag3747
ag1962
ag1964
ag1965
ag1966
ag1967
ag1968
ag1969
ag1971
ag1972
ag1975
ag2145
ag1977
ag1978
ag983
ag1984
ag1987
ag3791
ag1991
ag2460
ag1993
ag1596
ag1998
ag1999
ag2001
ag2003
ag2005
ag2007
ag3928
ag2015
ag2016
ag2017
ag2018
ag2019
ag2566
ag2024
ag2025
ag2030
ag2031
ag2034
ag3181
ag2036
ag2037
ag2041
ag3193
ag2044
ag2046
ag188
ag28
ag42
ag2054
ag2056
ag2057
ag2059
ag372
ag2061
ag2062
ag2065
ag2067
ag2069
ag2070
ag2072
ag2073
ag2075
ag2077
ag385
ag2080
ag353
ag3897
ag2086
ag234
ag2091
ag2093
ag3089
ag352
ag2096
ag2098
ag335
ag2103
ag2105
ag369
ag2108
ag2110
ag2839
ag2113
ag402
ag405
ag2118
ag2119
ag2123
ag2125
ag2133
ag2571
ag2134
ag2135
ag2136
ag2137
ag2138
ag2139
ag3018
ag2146
ag2148
ag2149
ag3098
ag2154
ag2155
ag2156
ag2157
ag2159
ag2160
ag3465
ag2162
ag2164
ag116
ag2166
ag4021
ag2169
ag766
ag3780
ag2601
ag2176
ag2177
ag2178
ag2179
ag2181
ag2595
ag3242
ag2184
ag2185
ag2186
ag2189
ag2581
ag2192
ag2194
ag2196
ag2199
ag2202
ag2203
ag2204
ag2206
ag2328
ag2211
ag2213
ag2214
ag2217
ag2218
ag2219
ag2222
ag1107
ag2224
ag2227
ag914
ag2228
ag2229
ag795
ag2231
ag2232
ag2233
ag2234
ag2235
ag2237
ag1202
ag2731
ag2745
ag2242
ag2459
ag2247
ag2250
ag2254
ag2255
ag2256
ag2260
ag1761
ag2688
ag2264
ag2267
ag2269
ag1414
ag2272
ag3119
ag2275
ag2277
ag2279
ag1464
ag2282
ag2284
ag2286
ag4030
ag2288
ag2289
ag2292
ag2294
ag2295
ag2296
ag2298
ag1561
ag2300
ag2303
ag14
ag2305
ag2311
ag2314
ag2315
ag1626
ag2439
ag1643
ag2323
ag2325
ag3001
ag2332
ag2335
ag2337
ag2338
ag1763
ag2342
ag495
ag3905
ag2348
ag2353
ag2355
ag2356
ag3129
ag1482
ag2361
ag2363
ag2326
ag2368
ag3037
ag2371
ag2372
ag1942
ag2376
ag2378
ag2379
ag1997
ag2002
ag2383
ag2384
ag2385
ag2386
ag2387
ag2389
ag2391
ag2392
ag2394
ag2396
ag2397
ag2398
ag357
ag2400
ag2401
ag2402
ag2403
ag3
ag3539
ag2408
ag3636
ag3658
ag2409
ag2411
ag2163
ag2417
ag2418
ag2419
ag2420
ag2421
ag2201
ag2425
ag2426
ag2427
ag2429
ag3725
ag3139
ag208
ag2437
ag2438
ag2318
ag3981
ag2443
ag3553
ag3470
ag2359
ag2449
ag2451
ag2388
ag2455
ag2422
ag2462
ag2463
ag2466
ag1822
ag2470
ag2472
ag2474
ag2476
ag2477
ag1745
ag2480
ag2481
ag2484
ag2486
ag2488
ag2490
ag2491
ag2586
ag2495
ag2496
ag2500
ag2502
ag2505
ag2507
ag1566
ag2508
ag2509
ag2511
ag2512
ag2514
ag2516
ag2519
ag2791
ag2794
ag2526
ag2814
ag2829
ag2866
ag2532
ag2536
ag2538
ag2539
ag2501
ag2542
ag2545
ag2680
ag2950
ag1231
ag2554
ag2557
ag2556
ag3002
ag2558
ag2568
ag2570
ag3966
ag2573
ag2574
ag2575
ag2577
ag2583
ag2585
ag3202
ag2588
ag2589
ag2590
ag2591
ag3169
ag2594
ag1456
ag3013
ag2824
ag2602
ag2603
ag2605
ag2606
ag2607
ag2609
ag2610
ag2614
ag3902
ag2776
ag2620
ag2621
ag2622
ag2624
ag2625
ag3427
ag2627
ag2628
ag2990
ag2629
ag2630
ag2632
ag2633
ag2635
ag2636
ag2637
ag2639
ag2643
ag2644
ag2647
ag2648
ag3950
ag2651
ag2652
ag1065
ag2655
ag2657
ag2659
ag153
ag2662
ag2664
ag2665
ag3676
ag2671
ag2675
ag2676
ag2677
ag2679
ag794
ag2682
ag2684
ag3804
ag2687
ag3186
ag2689
ag2692
ag3599
ag2700
ag2702
ag2704
ag2705
ag2706
ag2707
ag2709
ag2710
ag2949
ag3944
ag2714
ag2716
ag3976
ag2722
ag2723
ag2724
ag2725
ag2726
ag2727
ag2728
ag2730
ag3105
ag4050
ag2737
ag2741
ag2742
ag2746
ag851
ag2748
ag34
ag2751
ag2752
ag45
ag2513
ag2764
ag2766
ag2767
ag2770
ag3448
ag2775
ag1597
ag3039
ag2779
ag2780
ag2781
ag2782
ag2783
ag2784
ag228
ag3167
ag2788
ag2789
ag2790
ag2792
ag2793
ag3549
ag2797
ag2800
ag2801
ag2802
ag2805
ag2807
ag2808
ag2809
ag406
ag411
ag449
ag2816
ag1395
ag3432
ag462
ag2821
ag2822
ag2823
ag480
ag486
ag2826
ag2827
ag2828
ag3883
ag2832
ag2833
ag546
ag2835
ag2837
ag2838
ag3701
ag2840
ag2841
ag3933
ag3333
ag3555
ag2844
ag196
ag626
ag2850
ag2851
ag2852
ag2856
ag3390
ag2861
ag2862
ag501
ag2865
ag3578
ag2869
ag2870
ag2871
ag2872
ag3894
ag2878
ag2879
ag2880
ag2881
ag2882
ag861
ag2352
ag2888
ag2890
ag2892
ag2896
ag2897
ag3461
ag2901
ag940
ag2906
ag2907
ag2909
ag2910
ag3850
ag2913
ag2914
ag2916
ag2918
ag2919
ag2926
ag2928
ag2929
ag2931
ag2932
ag2933
ag2912
ag2935
ag2937
ag2465
ag2939
ag3860
ag2943
ag2944
ag2945
ag2947
ag4039
ag2948
ag1242
ag2952
ag2958
ag2961
ag2963
ag2965
ag473
ag2972
ag2973
ag2974
ag2976
ag2980
ag3856
ag2981
ag2982
ag2984
ag2985
ag2986
ag1516
ag1270
ag2993
ag2995
ag1737
ag2999
ag3000
ag3004
ag3007
ag3010
ag3918
ag3012
ag283
ag3313
ag3017
ag1660
ag3110
ag3022
ag3025
ag3026
ag1735
ag3306
ag3030
ag3031
ag3035
ag3036
ag3040
ag3042
ag2669
ag3047
ag3048
ag3049
ag3053
ag1836
ag1933
ag2600
ag3059
ag3956
ag3063
ag3064
ag3065
ag3067
ag3070
ag3072
ag3073
ag3076
ag3079
ag3081
ag3082
ag3083
ag3084
ag1180
ag2739
ag1209
ag3932
ag1182
ag3094
ag2208
ag3099
ag3101
ag2182
ag3106
ag980
ag3108
ag3109
ag2215
ag3112
ag3113
ag3116
ag3117
ag3118
ag2273
ag3937
ag2124
ag498
ag3126
ag3127
ag3128
ag3130
ag3133
ag1764
ag3136
ag3137
ag3138
ag2435
ag3142
ag3143
ag3144
ag3145
ag3147
ag500
ag3149
ag3154
ag3155
ag3157
ag3159
ag3160
ag3161
ag3165
ag615
ag3265
ag3170
ag1651
ag3173
ag3179
ag3184
ag1963
ag3187
ag3191
ag3192
ag3194
ag292
ag3198
ag3272
ag3200
ag3201
ag3203
ag3206
ag3214
ag3948
ag3216
ag2886
ag3218
ag3219
ag3220
ag2917
ag3222
ag3230
ag3234
ag3239
ag3241
ag2678
ag3247
ag3057
ag3250
ag3096
ag3256
ag3257
ag3259
ag3260
ag3264
ag912
ag3174
ag3268
ag3271
ag684
ag3273
ag3275
ag3278
ag3279
ag521
ag1217
ag3282
ag3283
ag3291
ag3292
ag3294
ag3296
ag3298
ag205
ag3300
ag3301
ag3303
ag3304
ag3442
ag3307
ag3310
ag3311
ag3312
ag3421
ag3314
ag3317
ag3319
ag3320
ag3321
ag3322
ag3324
ag3325
ag3495
ag123
ag3334
ag3335
ag3336
ag3337
ag3338
ag3339
ag3340
ag3341
ag3343
ag3345
ag3733
ag3347
ag3348
ag3349
ag3351
ag3352
ag3965
ag3354
ag3355
ag3358
ag3360
ag663
ag3362
ag3364
ag3366
ag3370
ag3371
ag3373
ag3375
ag939
ag3876
ag3382
ag3383
ag3384
ag3122
ag3386
ag3915
ag3388
ag3389
ag3394
ag3397
ag3399
ag3400
ag3403
ag1934
ag3406
ag3409
ag3410
ag3412
ag3414
ag3415
ag3417
ag3419
ag3420
ag3422
ag3424
ag1625
ag3426
ag37
ag3980
ag3429
ag3961
ag3433
ag3434
ag3435
ag3436
ag3440
ag3441
ag3444
ag3446
ag1274
ag345
ag3450
ag1308
ag3457
ag250
ag1208
ag263
ag290
ag3464
ag2142
ag3466
ag3467
ag3471
ag3472
ag3473
ag3474
ag2011
ag3477
ag1391
ag3480
ag3481
ag3483
ag1705
ag3486
ag3492
ag3493
ag3990
ag765
ag3496
ag3742
ag3498
ag3038
ag3501
ag3507
ag463
ag3510
ag3511
ag3512
ag592
ag3514
ag3516
ag3517
ag3518
ag3519
ag3520
ag641
ag2319
ag3524
ag3526
ag3527
ag3530
ag727
ag3533
ag3534
ag2393
ag1258
ag3756
ag3540
ag3542
ag2773
ag3544
ag3545
ag3546
ag821
ag3552
ag874
ag3556
ag3557
ag3559
ag3560
ag3562
ag3563
ag3564
ag3565
ag3566
ag3568
ag1951
ag3577
ag3579
ag3580
ag3581
ag3582
ag3583
ag3585
ag1038
ag3588
ag1054
ag3590
ag3592
ag3596
ag3911
ag3598
ag1104
ag3163
ag3602
ag4014
ag3810
ag3607
ag3608
ag3610
ag3612
ag3613
ag2454
ag3245
ag3617
ag4009
ag1218
ag3622
ag3624
ag3626
ag3628
ag3630
ag3632
ag1076
ag3634
ag1291
ag3393
ag3639
ag1389
ag3641
ag2487
ag3567
ag3648
ag3652
ag1434
ag3656
ag2090
ag247
ag3659
ag3660
ag3661
ag3664
ag3665
ag3666
ag2772
ag3669
ag3135
ag3670
ag3671
ag3673
ag3675
ag1556
ag1261
ag1520
ag1579
ag3682
ag3683
ag3686
ag3687
ag3688
ag3690
ag3691
ag3693
ag3694
ag1652
ag3697
ag1662
ag3699
ag3703
ag3705
ag3707
ag3708
ag3709
ag1726
ag3711
ag3712
ag3714
ag3715
ag655
ag1333
ag3721
ag1815
ag3727
ag3731
ag3732
ag2717
ag3734
ag1891
ag3737
ag3738
ag1945
ag3745
ag3746
ag2092
ag386
ag3751
ag3752
ag3755
ag3758
ag3759
ag297
ag3762
ag3763
ag3764
ag3766
ag3771
ag3772
ag3774
ag3775
ag3777
ag3778
ag2172
ag2174
ag3784
ag3706
ag3788
ag3789
ag3792
ag3793
ag2923
ag3795
ag3796
ag3798
ag1278
ag3801
ag3802
ag4042
ag3807
ag2327
ag3811
ag3813
ag3814
ag3816
ag3817
ag3821
ag3822
ag1817
ag3824
ag2478
ag2799
ag2504
ag3834
ag3835
ag3836
ag3838
ag3840
ag2552
ag3842
ag2567
ag3844
ag2515
ag3849
ag1976
ag3854
ag1522
ag3859
ag3861
ag2699
ag1277
ag1001
ag3872
ag248
ag3874
ag2787
ag3877
ag3878
ag3654
ag3880
ag756
ag3885
ag3888
ag3871
ag148
ag2867
ag1378
ag2877
ag3896
ag2964
ag3900
ag3901
ag2927
ag2257
ag3906
ag3907
ag3910
ag3912
ag3989
ag539
ag3919
ag3034
ag3925
ag3926
ag3074
ag466
ag3930
ag3380
ag2006
ag3936
ag3120
ag3938
ag3940
ag3941
ag2654
ag3946
ag3215
ag2713
ag3949
ag1136
ag3952
ag1193
ag3728
ag3323
ag3962
ag3353
ag3967
ag3972
ag3973
ag3974
ag3975
ag3977
ag3979
ag2430
ag443
ag3985
ag3986
ag117
ag3494
ag3228
ag3992
ag3993
ag3994
ag3996
ag3997
ag3998
ag3999
ag4001
ag4004
ag4005
ag3576
ag2592
ag2520
ag1295
ag3289
ag4024
ag4025
ag4029
ag3722
ag4031
ag4032
ag1823
ag4035
ag4037
ag4038
ag3785
ag4040
ag1827
ag4043
ag4044
ag4045
ag4046
ag62
ag4053
ag4057
ag4060
ag4061
ag4062
ag4063
ag4064
ag4065
ag4066
ag4067
ag4072
ag2818
ag4076
ag4078
ag4080
ag4082
ag4083
ag4084
ag4085
ag2253
ag2616
ag4088
ag4091
aa.